
SerialLibraryExample.elf:     file format elf32-littlearm

Sections:
Idx Name          Size      VMA       LMA       File off  Algn
  0 .text         00003750  00000000  00000000  00010000  2**2
                  CONTENTS, ALLOC, LOAD, READONLY, CODE
  1 .ARM.exidx    00000008  00003750  00003750  00013750  2**2
                  CONTENTS, ALLOC, LOAD, READONLY, DATA
  2 .relocate     00000464  20000000  00003758  00020000  2**3
                  CONTENTS, ALLOC, LOAD, DATA
  3 .bss          00000648  20000464  00003bbc  00020464  2**2
                  ALLOC
  4 .stack        00002004  20000aac  00004204  00020464  2**0
                  ALLOC
  5 .ARM.attributes 00000028  00000000  00000000  00020464  2**0
                  CONTENTS, READONLY
  6 .comment      00000059  00000000  00000000  0002048c  2**0
                  CONTENTS, READONLY
  7 .debug_info   0001d2b9  00000000  00000000  000204e5  2**0
                  CONTENTS, READONLY, DEBUGGING
  8 .debug_abbrev 00002f4b  00000000  00000000  0003d79e  2**0
                  CONTENTS, READONLY, DEBUGGING
  9 .debug_loc    00007ce2  00000000  00000000  000406e9  2**0
                  CONTENTS, READONLY, DEBUGGING
 10 .debug_aranges 000006e0  00000000  00000000  000483cb  2**0
                  CONTENTS, READONLY, DEBUGGING
 11 .debug_ranges 00000b48  00000000  00000000  00048aab  2**0
                  CONTENTS, READONLY, DEBUGGING
 12 .debug_macro  0001759f  00000000  00000000  000495f3  2**0
                  CONTENTS, READONLY, DEBUGGING
 13 .debug_line   00007f06  00000000  00000000  00060b92  2**0
                  CONTENTS, READONLY, DEBUGGING
 14 .debug_str    00082f8d  00000000  00000000  00068a98  2**0
                  CONTENTS, READONLY, DEBUGGING
 15 .debug_frame  000014c4  00000000  00000000  000eba28  2**2
                  CONTENTS, READONLY, DEBUGGING

Disassembly of section .text:

00000000 <exception_table>:
       0:	b0 2a 00 20 19 01 00 00 15 01 00 00 15 01 00 00     .*. ............
	...
      2c:	15 01 00 00 00 00 00 00 00 00 00 00 15 01 00 00     ................
      3c:	15 01 00 00 15 01 00 00 15 01 00 00 15 01 00 00     ................
      4c:	15 01 00 00 15 01 00 00 15 01 00 00 15 01 00 00     ................
      5c:	95 05 00 00 15 01 00 00 a9 05 00 00 15 01 00 00     ................
      6c:	15 01 00 00 15 01 00 00 15 01 00 00 15 01 00 00     ................
      7c:	15 01 00 00 15 01 00 00 15 01 00 00 15 01 00 00     ................
      8c:	15 01 00 00 15 01 00 00 00 00 00 00 00 00 00 00     ................
      9c:	15 01 00 00 15 01 00 00 15 01 00 00 15 01 00 00     ................
      ac:	15 01 00 00 00 00 00 00                             ........

000000b4 <__do_global_dtors_aux>:
      b4:	b510      	push	{r4, lr}
      b6:	4c06      	ldr	r4, [pc, #24]	; (d0 <__do_global_dtors_aux+0x1c>)
      b8:	7823      	ldrb	r3, [r4, #0]
      ba:	2b00      	cmp	r3, #0
      bc:	d107      	bne.n	ce <__do_global_dtors_aux+0x1a>
      be:	4b05      	ldr	r3, [pc, #20]	; (d4 <__do_global_dtors_aux+0x20>)
      c0:	2b00      	cmp	r3, #0
      c2:	d002      	beq.n	ca <__do_global_dtors_aux+0x16>
      c4:	4804      	ldr	r0, [pc, #16]	; (d8 <__do_global_dtors_aux+0x24>)
      c6:	e000      	b.n	ca <__do_global_dtors_aux+0x16>
      c8:	bf00      	nop
      ca:	2301      	movs	r3, #1
      cc:	7023      	strb	r3, [r4, #0]
      ce:	bd10      	pop	{r4, pc}
      d0:	20000464 	.word	0x20000464
      d4:	00000000 	.word	0x00000000
      d8:	00003758 	.word	0x00003758

000000dc <frame_dummy>:
      dc:	4b08      	ldr	r3, [pc, #32]	; (100 <frame_dummy+0x24>)
      de:	b510      	push	{r4, lr}
      e0:	2b00      	cmp	r3, #0
      e2:	d003      	beq.n	ec <frame_dummy+0x10>
      e4:	4907      	ldr	r1, [pc, #28]	; (104 <frame_dummy+0x28>)
      e6:	4808      	ldr	r0, [pc, #32]	; (108 <frame_dummy+0x2c>)
      e8:	e000      	b.n	ec <frame_dummy+0x10>
      ea:	bf00      	nop
      ec:	4807      	ldr	r0, [pc, #28]	; (10c <frame_dummy+0x30>)
      ee:	6803      	ldr	r3, [r0, #0]
      f0:	2b00      	cmp	r3, #0
      f2:	d100      	bne.n	f6 <frame_dummy+0x1a>
      f4:	bd10      	pop	{r4, pc}
      f6:	4b06      	ldr	r3, [pc, #24]	; (110 <frame_dummy+0x34>)
      f8:	2b00      	cmp	r3, #0
      fa:	d0fb      	beq.n	f4 <frame_dummy+0x18>
      fc:	4798      	blx	r3
      fe:	e7f9      	b.n	f4 <frame_dummy+0x18>
     100:	00000000 	.word	0x00000000
     104:	20000468 	.word	0x20000468
     108:	00003758 	.word	0x00003758
     10c:	00003758 	.word	0x00003758
     110:	00000000 	.word	0x00000000

00000114 <Dummy_Handler>:

/**
 * \brief Default interrupt handler for unused IRQs.
 */
void Dummy_Handler(void)
{
     114:	e7fe      	b.n	114 <Dummy_Handler>
	...

00000118 <Reset_Handler>:
{
     118:	b5f8      	push	{r3, r4, r5, r6, r7, lr}
        if (pSrc != pDest) {
     11a:	4a23      	ldr	r2, [pc, #140]	; (1a8 <Reset_Handler+0x90>)
     11c:	4b23      	ldr	r3, [pc, #140]	; (1ac <Reset_Handler+0x94>)
     11e:	429a      	cmp	r2, r3
     120:	d009      	beq.n	136 <Reset_Handler+0x1e>
     122:	4b22      	ldr	r3, [pc, #136]	; (1ac <Reset_Handler+0x94>)
     124:	4a20      	ldr	r2, [pc, #128]	; (1a8 <Reset_Handler+0x90>)
     126:	e003      	b.n	130 <Reset_Handler+0x18>
                        *pDest++ = *pSrc++;
     128:	6811      	ldr	r1, [r2, #0]
     12a:	6019      	str	r1, [r3, #0]
     12c:	3304      	adds	r3, #4
     12e:	3204      	adds	r2, #4
                for (; pDest < &_erelocate;) {
     130:	491f      	ldr	r1, [pc, #124]	; (1b0 <Reset_Handler+0x98>)
     132:	428b      	cmp	r3, r1
     134:	d3f8      	bcc.n	128 <Reset_Handler+0x10>
                        *pDest++ = *pSrc++;
     136:	4b1f      	ldr	r3, [pc, #124]	; (1b4 <Reset_Handler+0x9c>)
     138:	e002      	b.n	140 <Reset_Handler+0x28>
                *pDest++ = 0;
     13a:	2200      	movs	r2, #0
     13c:	601a      	str	r2, [r3, #0]
     13e:	3304      	adds	r3, #4
        for (pDest = &_szero; pDest < &_ezero;) {
     140:	4a1d      	ldr	r2, [pc, #116]	; (1b8 <Reset_Handler+0xa0>)
     142:	4293      	cmp	r3, r2
     144:	d3f9      	bcc.n	13a <Reset_Handler+0x22>
        SCB->VTOR = ((uint32_t) pSrc & SCB_VTOR_TBLOFF_Msk);
     146:	4a1d      	ldr	r2, [pc, #116]	; (1bc <Reset_Handler+0xa4>)
     148:	21ff      	movs	r1, #255	; 0xff
     14a:	4b1d      	ldr	r3, [pc, #116]	; (1c0 <Reset_Handler+0xa8>)
     14c:	438b      	bics	r3, r1
     14e:	6093      	str	r3, [r2, #8]
        SBMATRIX->SFR[SBMATRIX_SLAVE_HMCRAMC0].reg = 2;
     150:	39fd      	subs	r1, #253	; 0xfd
     152:	2390      	movs	r3, #144	; 0x90
     154:	005b      	lsls	r3, r3, #1
     156:	4a1b      	ldr	r2, [pc, #108]	; (1c4 <Reset_Handler+0xac>)
     158:	50d1      	str	r1, [r2, r3]
        USB->DEVICE.QOSCTRL.bit.CQOS = 2;
     15a:	4a1b      	ldr	r2, [pc, #108]	; (1c8 <Reset_Handler+0xb0>)
     15c:	78d3      	ldrb	r3, [r2, #3]
     15e:	2503      	movs	r5, #3
     160:	43ab      	bics	r3, r5
     162:	2402      	movs	r4, #2
     164:	4323      	orrs	r3, r4
     166:	70d3      	strb	r3, [r2, #3]
        USB->DEVICE.QOSCTRL.bit.DQOS = 2;
     168:	78d3      	ldrb	r3, [r2, #3]
     16a:	270c      	movs	r7, #12
     16c:	43bb      	bics	r3, r7
     16e:	2608      	movs	r6, #8
     170:	4333      	orrs	r3, r6
     172:	70d3      	strb	r3, [r2, #3]
        DMAC->QOSCTRL.bit.DQOS = 2;
     174:	4b15      	ldr	r3, [pc, #84]	; (1cc <Reset_Handler+0xb4>)
     176:	7b98      	ldrb	r0, [r3, #14]
     178:	2230      	movs	r2, #48	; 0x30
     17a:	4390      	bics	r0, r2
     17c:	2220      	movs	r2, #32
     17e:	4310      	orrs	r0, r2
     180:	7398      	strb	r0, [r3, #14]
        DMAC->QOSCTRL.bit.FQOS = 2;
     182:	7b99      	ldrb	r1, [r3, #14]
     184:	43b9      	bics	r1, r7
     186:	4331      	orrs	r1, r6
     188:	7399      	strb	r1, [r3, #14]
        DMAC->QOSCTRL.bit.WRBQOS = 2;
     18a:	7b9a      	ldrb	r2, [r3, #14]
     18c:	43aa      	bics	r2, r5
     18e:	4322      	orrs	r2, r4
     190:	739a      	strb	r2, [r3, #14]
        NVMCTRL->CTRLB.bit.MANW = 1;
     192:	4a0f      	ldr	r2, [pc, #60]	; (1d0 <Reset_Handler+0xb8>)
     194:	6851      	ldr	r1, [r2, #4]
     196:	2380      	movs	r3, #128	; 0x80
     198:	430b      	orrs	r3, r1
     19a:	6053      	str	r3, [r2, #4]
        __libc_init_array();
     19c:	4b0d      	ldr	r3, [pc, #52]	; (1d4 <Reset_Handler+0xbc>)
     19e:	4798      	blx	r3
        main();
     1a0:	4b0d      	ldr	r3, [pc, #52]	; (1d8 <Reset_Handler+0xc0>)
     1a2:	4798      	blx	r3
     1a4:	e7fe      	b.n	1a4 <Reset_Handler+0x8c>
     1a6:	46c0      	nop			; (mov r8, r8)
     1a8:	00003758 	.word	0x00003758
     1ac:	20000000 	.word	0x20000000
     1b0:	20000464 	.word	0x20000464
     1b4:	20000464 	.word	0x20000464
     1b8:	20000aac 	.word	0x20000aac
     1bc:	e000ed00 	.word	0xe000ed00
     1c0:	00000000 	.word	0x00000000
     1c4:	41007000 	.word	0x41007000
     1c8:	41005000 	.word	0x41005000
     1cc:	41004800 	.word	0x41004800
     1d0:	41004000 	.word	0x41004000
     1d4:	00003191 	.word	0x00003191
     1d8:	000005c1 	.word	0x000005c1

000001dc <_ZN19ExampleStateMachine19DisabledStateActionEv>:
//state action functions
StateMachine::STT_STATE ExampleStateMachine::DisabledStateAction(void)
{
	//do nothing
	return STT_STATE::INITIALIZING;
}
     1dc:	2001      	movs	r0, #1
     1de:	4770      	bx	lr

000001e0 <_ZN19ExampleStateMachine23InitializingStateActionEv>:

StateMachine::STT_STATE ExampleStateMachine::InitializingStateAction(void)
{
     1e0:	b510      	push	{r4, lr}
	//TODO: CHANGE CLOCK INITIALIZATION TO FIT HARDWARE
	// Switch CPU clock source to 32 kHz ultra low power oscillator
	Util::enterCriticalSection();
     1e2:	4b1b      	ldr	r3, [pc, #108]	; (250 <_ZN19ExampleStateMachine23InitializingStateActionEv+0x70>)
     1e4:	4798      	blx	r3
	GCLK->GENCTRL.reg = GCLK_GENCTRL_SRC(GCLK_SOURCE_OSCULP32K) | GCLK_GENCTRL_GENEN;  // Change generator 0 source
     1e6:	4a1b      	ldr	r2, [pc, #108]	; (254 <_ZN19ExampleStateMachine23InitializingStateActionEv+0x74>)
     1e8:	4b1b      	ldr	r3, [pc, #108]	; (258 <_ZN19ExampleStateMachine23InitializingStateActionEv+0x78>)
     1ea:	605a      	str	r2, [r3, #4]
	while(GCLK->STATUS.bit.SYNCBUSY);                                  // Wait for write to complete
     1ec:	4b1a      	ldr	r3, [pc, #104]	; (258 <_ZN19ExampleStateMachine23InitializingStateActionEv+0x78>)
     1ee:	785b      	ldrb	r3, [r3, #1]
     1f0:	09db      	lsrs	r3, r3, #7
     1f2:	d1fb      	bne.n	1ec <_ZN19ExampleStateMachine23InitializingStateActionEv+0xc>

	// 8 MHz internal oscillator setup
	SYSCTRL->OSC8M.bit.ENABLE = 0x00u;                                 // Disable oscillator
     1f4:	4b19      	ldr	r3, [pc, #100]	; (25c <_ZN19ExampleStateMachine23InitializingStateActionEv+0x7c>)
     1f6:	6a19      	ldr	r1, [r3, #32]
     1f8:	2202      	movs	r2, #2
     1fa:	4391      	bics	r1, r2
     1fc:	6219      	str	r1, [r3, #32]
	while(SYSCTRL->OSC8M.bit.ENABLE);                                  // Wait for oscillator to stop
     1fe:	4b17      	ldr	r3, [pc, #92]	; (25c <_ZN19ExampleStateMachine23InitializingStateActionEv+0x7c>)
     200:	6a1b      	ldr	r3, [r3, #32]
     202:	079b      	lsls	r3, r3, #30
     204:	d4fb      	bmi.n	1fe <_ZN19ExampleStateMachine23InitializingStateActionEv+0x1e>
	SYSCTRL->OSC8M.bit.PRESC = 0x00u;                                  // Set options
     206:	4b15      	ldr	r3, [pc, #84]	; (25c <_ZN19ExampleStateMachine23InitializingStateActionEv+0x7c>)
     208:	6a19      	ldr	r1, [r3, #32]
     20a:	4a15      	ldr	r2, [pc, #84]	; (260 <_ZN19ExampleStateMachine23InitializingStateActionEv+0x80>)
     20c:	400a      	ands	r2, r1
     20e:	621a      	str	r2, [r3, #32]
	SYSCTRL->OSC8M.bit.ENABLE = 0x01u;                                 // Enable oscillator
     210:	6a19      	ldr	r1, [r3, #32]
     212:	2202      	movs	r2, #2
     214:	430a      	orrs	r2, r1
     216:	621a      	str	r2, [r3, #32]
	while(!(SYSCTRL->OSC8M.bit.ENABLE));                               // Wait for oscillator to become ready
     218:	4b10      	ldr	r3, [pc, #64]	; (25c <_ZN19ExampleStateMachine23InitializingStateActionEv+0x7c>)
     21a:	6a1b      	ldr	r3, [r3, #32]
     21c:	079b      	lsls	r3, r3, #30
     21e:	d5fb      	bpl.n	218 <_ZN19ExampleStateMachine23InitializingStateActionEv+0x38>

	// Set Generic Clock Generator 0 to use the 8 MHz oscillator
	GCLK->GENCTRL.reg = GCLK_GENCTRL_ID(0) | GCLK_GENCTRL_SRC(GCLK_SOURCE_OSC8M) | GCLK_GENCTRL_GENEN;  // Change generator 0 source
     220:	2283      	movs	r2, #131	; 0x83
     222:	0252      	lsls	r2, r2, #9
     224:	4b0c      	ldr	r3, [pc, #48]	; (258 <_ZN19ExampleStateMachine23InitializingStateActionEv+0x78>)
     226:	605a      	str	r2, [r3, #4]
	while(GCLK->STATUS.bit.SYNCBUSY);                                  // Wait for write to complete
     228:	4b0b      	ldr	r3, [pc, #44]	; (258 <_ZN19ExampleStateMachine23InitializingStateActionEv+0x78>)
     22a:	785b      	ldrb	r3, [r3, #1]
     22c:	09db      	lsrs	r3, r3, #7
     22e:	d1fb      	bne.n	228 <_ZN19ExampleStateMachine23InitializingStateActionEv+0x48>
	Util::exitCriticalSection();
     230:	4b0c      	ldr	r3, [pc, #48]	; (264 <_ZN19ExampleStateMachine23InitializingStateActionEv+0x84>)
     232:	4798      	blx	r3
	UARTHAL::Peripheral uart_peripheral;
	UARTHAL::GetPeripheralDefaults(&uart_peripheral);
	uart_peripheral.baud_value = (uint32_t)BAUD_RATE;
	uart_controller.Init(TX_BUFFER, sizeof(TX_BUFFER), RX_BUFFER, sizeof(RX_BUFFER));
	#else
	usb_controller.Init(RX_BUFFER, sizeof(RX_BUFFER));
     234:	4c0c      	ldr	r4, [pc, #48]	; (268 <_ZN19ExampleStateMachine23InitializingStateActionEv+0x88>)
     236:	2280      	movs	r2, #128	; 0x80
     238:	0092      	lsls	r2, r2, #2
     23a:	490c      	ldr	r1, [pc, #48]	; (26c <_ZN19ExampleStateMachine23InitializingStateActionEv+0x8c>)
     23c:	0020      	movs	r0, r4
     23e:	4b0c      	ldr	r3, [pc, #48]	; (270 <_ZN19ExampleStateMachine23InitializingStateActionEv+0x90>)
     240:	4798      	blx	r3
	usb_controller.Task(echo);
     242:	2320      	movs	r3, #32
     244:	5ce1      	ldrb	r1, [r4, r3]
     246:	0020      	movs	r0, r4
     248:	4b0a      	ldr	r3, [pc, #40]	; (274 <_ZN19ExampleStateMachine23InitializingStateActionEv+0x94>)
     24a:	4798      	blx	r3
	#endif
	
	return STT_STATE::OFF;
}
     24c:	2002      	movs	r0, #2
     24e:	bd10      	pop	{r4, pc}
     250:	0000302d 	.word	0x0000302d
     254:	00010300 	.word	0x00010300
     258:	40000c00 	.word	0x40000c00
     25c:	40000800 	.word	0x40000800
     260:	fffffcff 	.word	0xfffffcff
     264:	00003045 	.word	0x00003045
     268:	20000680 	.word	0x20000680
     26c:	20000480 	.word	0x20000480
     270:	00002e3d 	.word	0x00002e3d
     274:	00002ce5 	.word	0x00002ce5

00000278 <_ZN19ExampleStateMachine21PromptUserStateActionEv>:
	StateMachine::ProcessSuperState(&current_state, STT_STATE::SUPER, &SuperStateAction);
	return current_state;
}

StateMachine::STT_STATE ExampleStateMachine::PromptUserStateAction(void)
{
     278:	b510      	push	{r4, lr}
	#ifdef USING_UART
	uart_controller.TransmitString("Send strings through terminal to see responses!\n");
	#else
	usb_controller.Task(echo);
     27a:	4c06      	ldr	r4, [pc, #24]	; (294 <_ZN19ExampleStateMachine21PromptUserStateActionEv+0x1c>)
     27c:	2320      	movs	r3, #32
     27e:	5ce1      	ldrb	r1, [r4, r3]
     280:	0020      	movs	r0, r4
     282:	4b05      	ldr	r3, [pc, #20]	; (298 <_ZN19ExampleStateMachine21PromptUserStateActionEv+0x20>)
     284:	4798      	blx	r3
	usb_controller.TransmitString("Send strings through terminal to see responses!\n");
     286:	4905      	ldr	r1, [pc, #20]	; (29c <_ZN19ExampleStateMachine21PromptUserStateActionEv+0x24>)
     288:	0020      	movs	r0, r4
     28a:	4b05      	ldr	r3, [pc, #20]	; (2a0 <_ZN19ExampleStateMachine21PromptUserStateActionEv+0x28>)
     28c:	4798      	blx	r3
	#endif
	return STT_STATE::ON;
}
     28e:	2004      	movs	r0, #4
     290:	bd10      	pop	{r4, pc}
     292:	46c0      	nop			; (mov r8, r8)
     294:	20000680 	.word	0x20000680
     298:	00002ce5 	.word	0x00002ce5
     29c:	000034ac 	.word	0x000034ac
     2a0:	00002c3d 	.word	0x00002c3d

000002a4 <_ZN19ExampleStateMachine13OnStateActionEv>:

StateMachine::STT_STATE ExampleStateMachine::OnStateAction(void)
{
     2a4:	b530      	push	{r4, r5, lr}
     2a6:	b085      	sub	sp, #20
	StateMachine::STT_STATE current_state = STT_STATE::ON;
     2a8:	2204      	movs	r2, #4
     2aa:	230f      	movs	r3, #15
     2ac:	446b      	add	r3, sp
     2ae:	701a      	strb	r2, [r3, #0]
		uart_controller.TransmitString("Square value: ");
		uart_controller.TransmitInt(param * param);
		uart_controller.Transmit('\n');
	}
	#else
	usb_controller.Task(echo);
     2b0:	4c33      	ldr	r4, [pc, #204]	; (380 <_ZN19ExampleStateMachine13OnStateActionEv+0xdc>)
     2b2:	2320      	movs	r3, #32
     2b4:	5ce1      	ldrb	r1, [r4, r3]
     2b6:	0020      	movs	r0, r4
     2b8:	4b32      	ldr	r3, [pc, #200]	; (384 <_ZN19ExampleStateMachine13OnStateActionEv+0xe0>)
     2ba:	4798      	blx	r3
	if(usb_controller.ReceiveString("hello world"))
     2bc:	2301      	movs	r3, #1
     2be:	2200      	movs	r2, #0
     2c0:	4931      	ldr	r1, [pc, #196]	; (388 <_ZN19ExampleStateMachine13OnStateActionEv+0xe4>)
     2c2:	0020      	movs	r0, r4
     2c4:	4c31      	ldr	r4, [pc, #196]	; (38c <_ZN19ExampleStateMachine13OnStateActionEv+0xe8>)
     2c6:	47a0      	blx	r4
     2c8:	2800      	cmp	r0, #0
     2ca:	d12c      	bne.n	326 <_ZN19ExampleStateMachine13OnStateActionEv+0x82>
	{
		usb_controller.TransmitString("World: hello!\n");
	}
	else if(usb_controller.ReceiveString("echo"))
     2cc:	2301      	movs	r3, #1
     2ce:	2200      	movs	r2, #0
     2d0:	492f      	ldr	r1, [pc, #188]	; (390 <_ZN19ExampleStateMachine13OnStateActionEv+0xec>)
     2d2:	482b      	ldr	r0, [pc, #172]	; (380 <_ZN19ExampleStateMachine13OnStateActionEv+0xdc>)
     2d4:	4c2d      	ldr	r4, [pc, #180]	; (38c <_ZN19ExampleStateMachine13OnStateActionEv+0xe8>)
     2d6:	47a0      	blx	r4
     2d8:	2800      	cmp	r0, #0
     2da:	d132      	bne.n	342 <_ZN19ExampleStateMachine13OnStateActionEv+0x9e>
		usb_controller.TransmitString("Received data will now be echoed!\n");
		echo = true;
		usb_controller.Task(echo);
		usb_controller.TransmitString("(Regular function will cease until unplugged)\n");
	}
	else if(usb_controller.ReceiveParam(&param, "integer_"))
     2dc:	4828      	ldr	r0, [pc, #160]	; (380 <_ZN19ExampleStateMachine13OnStateActionEv+0xdc>)
     2de:	0001      	movs	r1, r0
     2e0:	3124      	adds	r1, #36	; 0x24
     2e2:	2308      	movs	r3, #8
     2e4:	9300      	str	r3, [sp, #0]
     2e6:	2300      	movs	r3, #0
     2e8:	4a2a      	ldr	r2, [pc, #168]	; (394 <_ZN19ExampleStateMachine13OnStateActionEv+0xf0>)
     2ea:	4c2b      	ldr	r4, [pc, #172]	; (398 <_ZN19ExampleStateMachine13OnStateActionEv+0xf4>)
     2ec:	47a0      	blx	r4
     2ee:	2800      	cmp	r0, #0
     2f0:	d137      	bne.n	362 <_ZN19ExampleStateMachine13OnStateActionEv+0xbe>
	{
		usb_controller.TransmitString("Integer: ");
		usb_controller.TransmitInt(param);
		usb_controller.Transmit('\n');
	}
	else if(usb_controller.ReceiveParam(&param, "square_",'!'))
     2f2:	4823      	ldr	r0, [pc, #140]	; (380 <_ZN19ExampleStateMachine13OnStateActionEv+0xdc>)
     2f4:	0001      	movs	r1, r0
     2f6:	3124      	adds	r1, #36	; 0x24
     2f8:	2308      	movs	r3, #8
     2fa:	9300      	str	r3, [sp, #0]
     2fc:	3319      	adds	r3, #25
     2fe:	4a27      	ldr	r2, [pc, #156]	; (39c <_ZN19ExampleStateMachine13OnStateActionEv+0xf8>)
     300:	4c25      	ldr	r4, [pc, #148]	; (398 <_ZN19ExampleStateMachine13OnStateActionEv+0xf4>)
     302:	47a0      	blx	r4
     304:	2800      	cmp	r0, #0
     306:	d012      	beq.n	32e <_ZN19ExampleStateMachine13OnStateActionEv+0x8a>
	{
		usb_controller.TransmitString("Square value: ");
     308:	4c1d      	ldr	r4, [pc, #116]	; (380 <_ZN19ExampleStateMachine13OnStateActionEv+0xdc>)
     30a:	4925      	ldr	r1, [pc, #148]	; (3a0 <_ZN19ExampleStateMachine13OnStateActionEv+0xfc>)
     30c:	0020      	movs	r0, r4
     30e:	4b25      	ldr	r3, [pc, #148]	; (3a4 <_ZN19ExampleStateMachine13OnStateActionEv+0x100>)
     310:	4798      	blx	r3
		usb_controller.TransmitInt(param * param);
     312:	6a61      	ldr	r1, [r4, #36]	; 0x24
     314:	4349      	muls	r1, r1
     316:	0020      	movs	r0, r4
     318:	4b23      	ldr	r3, [pc, #140]	; (3a8 <_ZN19ExampleStateMachine13OnStateActionEv+0x104>)
     31a:	4798      	blx	r3
		usb_controller.Transmit('\n');
     31c:	210a      	movs	r1, #10
     31e:	0020      	movs	r0, r4
     320:	4b22      	ldr	r3, [pc, #136]	; (3ac <_ZN19ExampleStateMachine13OnStateActionEv+0x108>)
     322:	4798      	blx	r3
     324:	e003      	b.n	32e <_ZN19ExampleStateMachine13OnStateActionEv+0x8a>
		usb_controller.TransmitString("World: hello!\n");
     326:	4922      	ldr	r1, [pc, #136]	; (3b0 <_ZN19ExampleStateMachine13OnStateActionEv+0x10c>)
     328:	4815      	ldr	r0, [pc, #84]	; (380 <_ZN19ExampleStateMachine13OnStateActionEv+0xdc>)
     32a:	4b1e      	ldr	r3, [pc, #120]	; (3a4 <_ZN19ExampleStateMachine13OnStateActionEv+0x100>)
     32c:	4798      	blx	r3
	}
	#endif
	StateMachine::ProcessSuperState(&current_state, STT_STATE::SUPER, &SuperStateAction);
     32e:	240f      	movs	r4, #15
     330:	446c      	add	r4, sp
     332:	4a20      	ldr	r2, [pc, #128]	; (3b4 <_ZN19ExampleStateMachine13OnStateActionEv+0x110>)
     334:	2105      	movs	r1, #5
     336:	0020      	movs	r0, r4
     338:	4b1f      	ldr	r3, [pc, #124]	; (3b8 <_ZN19ExampleStateMachine13OnStateActionEv+0x114>)
     33a:	4798      	blx	r3
	return current_state;
     33c:	7820      	ldrb	r0, [r4, #0]
}
     33e:	b005      	add	sp, #20
     340:	bd30      	pop	{r4, r5, pc}
		usb_controller.TransmitString("Received data will now be echoed!\n");
     342:	4c0f      	ldr	r4, [pc, #60]	; (380 <_ZN19ExampleStateMachine13OnStateActionEv+0xdc>)
     344:	491d      	ldr	r1, [pc, #116]	; (3bc <_ZN19ExampleStateMachine13OnStateActionEv+0x118>)
     346:	0020      	movs	r0, r4
     348:	4d16      	ldr	r5, [pc, #88]	; (3a4 <_ZN19ExampleStateMachine13OnStateActionEv+0x100>)
     34a:	47a8      	blx	r5
		echo = true;
     34c:	2201      	movs	r2, #1
     34e:	2320      	movs	r3, #32
     350:	54e2      	strb	r2, [r4, r3]
		usb_controller.Task(echo);
     352:	2101      	movs	r1, #1
     354:	0020      	movs	r0, r4
     356:	4b0b      	ldr	r3, [pc, #44]	; (384 <_ZN19ExampleStateMachine13OnStateActionEv+0xe0>)
     358:	4798      	blx	r3
		usb_controller.TransmitString("(Regular function will cease until unplugged)\n");
     35a:	4919      	ldr	r1, [pc, #100]	; (3c0 <_ZN19ExampleStateMachine13OnStateActionEv+0x11c>)
     35c:	0020      	movs	r0, r4
     35e:	47a8      	blx	r5
     360:	e7e5      	b.n	32e <_ZN19ExampleStateMachine13OnStateActionEv+0x8a>
		usb_controller.TransmitString("Integer: ");
     362:	4c07      	ldr	r4, [pc, #28]	; (380 <_ZN19ExampleStateMachine13OnStateActionEv+0xdc>)
     364:	4917      	ldr	r1, [pc, #92]	; (3c4 <_ZN19ExampleStateMachine13OnStateActionEv+0x120>)
     366:	0020      	movs	r0, r4
     368:	4b0e      	ldr	r3, [pc, #56]	; (3a4 <_ZN19ExampleStateMachine13OnStateActionEv+0x100>)
     36a:	4798      	blx	r3
		usb_controller.TransmitInt(param);
     36c:	6a61      	ldr	r1, [r4, #36]	; 0x24
     36e:	0020      	movs	r0, r4
     370:	4b0d      	ldr	r3, [pc, #52]	; (3a8 <_ZN19ExampleStateMachine13OnStateActionEv+0x104>)
     372:	4798      	blx	r3
		usb_controller.Transmit('\n');
     374:	210a      	movs	r1, #10
     376:	0020      	movs	r0, r4
     378:	4b0c      	ldr	r3, [pc, #48]	; (3ac <_ZN19ExampleStateMachine13OnStateActionEv+0x108>)
     37a:	4798      	blx	r3
     37c:	e7d7      	b.n	32e <_ZN19ExampleStateMachine13OnStateActionEv+0x8a>
     37e:	46c0      	nop			; (mov r8, r8)
     380:	20000680 	.word	0x20000680
     384:	00002ce5 	.word	0x00002ce5
     388:	000034e0 	.word	0x000034e0
     38c:	00002c75 	.word	0x00002c75
     390:	000034fc 	.word	0x000034fc
     394:	00003558 	.word	0x00003558
     398:	00002cb1 	.word	0x00002cb1
     39c:	00003570 	.word	0x00003570
     3a0:	00003578 	.word	0x00003578
     3a4:	00002c3d 	.word	0x00002c3d
     3a8:	00002c8d 	.word	0x00002c8d
     3ac:	00002be5 	.word	0x00002be5
     3b0:	000034ec 	.word	0x000034ec
     3b4:	00000531 	.word	0x00000531
     3b8:	0000301b 	.word	0x0000301b
     3bc:	00003504 	.word	0x00003504
     3c0:	00003528 	.word	0x00003528
     3c4:	00003564 	.word	0x00003564

000003c8 <_Z41__static_initialization_and_destruction_0ii>:
{
	#ifdef USING_UART
	uart_controller.ISR();
	if(echo) uart_controller.EchoRx();
	#endif
}
     3c8:	b510      	push	{r4, lr}
     3ca:	2801      	cmp	r0, #1
     3cc:	d000      	beq.n	3d0 <_Z41__static_initialization_and_destruction_0ii+0x8>
     3ce:	bd10      	pop	{r4, pc}
     3d0:	4b06      	ldr	r3, [pc, #24]	; (3ec <_Z41__static_initialization_and_destruction_0ii+0x24>)
     3d2:	4299      	cmp	r1, r3
     3d4:	d1fb      	bne.n	3ce <_Z41__static_initialization_and_destruction_0ii+0x6>
SerialUSB::USBController usb_controller;
     3d6:	4c06      	ldr	r4, [pc, #24]	; (3f0 <_Z41__static_initialization_and_destruction_0ii+0x28>)
     3d8:	0020      	movs	r0, r4
     3da:	4b06      	ldr	r3, [pc, #24]	; (3f4 <_Z41__static_initialization_and_destruction_0ii+0x2c>)
     3dc:	4798      	blx	r3
     3de:	4a06      	ldr	r2, [pc, #24]	; (3f8 <_Z41__static_initialization_and_destruction_0ii+0x30>)
     3e0:	4906      	ldr	r1, [pc, #24]	; (3fc <_Z41__static_initialization_and_destruction_0ii+0x34>)
     3e2:	0020      	movs	r0, r4
     3e4:	4b06      	ldr	r3, [pc, #24]	; (400 <_Z41__static_initialization_and_destruction_0ii+0x38>)
     3e6:	4798      	blx	r3
}
     3e8:	e7f1      	b.n	3ce <_Z41__static_initialization_and_destruction_0ii+0x6>
     3ea:	46c0      	nop			; (mov r8, r8)
     3ec:	0000ffff 	.word	0x0000ffff
     3f0:	20000680 	.word	0x20000680
     3f4:	00002b81 	.word	0x00002b81
     3f8:	20000000 	.word	0x20000000
     3fc:	00002e01 	.word	0x00002e01
     400:	00003059 	.word	0x00003059

00000404 <_ZN19ExampleStateMachine22GetExampleStateMachineEPN12StateMachine11STT_MACHINEE>:
	state_machine->current_state = STT_STATE::DISABLED;
     404:	2300      	movs	r3, #0
     406:	7003      	strb	r3, [r0, #0]
	state_machine->state_actions[STT_STATE::DISABLED] = &DisabledStateAction;
     408:	4b05      	ldr	r3, [pc, #20]	; (420 <_ZN19ExampleStateMachine22GetExampleStateMachineEPN12StateMachine11STT_MACHINEE+0x1c>)
     40a:	6043      	str	r3, [r0, #4]
	state_machine->state_actions[STT_STATE::INITIALIZING] = &InitializingStateAction;
     40c:	4b05      	ldr	r3, [pc, #20]	; (424 <_ZN19ExampleStateMachine22GetExampleStateMachineEPN12StateMachine11STT_MACHINEE+0x20>)
     40e:	6083      	str	r3, [r0, #8]
	state_machine->state_actions[STT_STATE::OFF] = &OffStateAction;
     410:	4b05      	ldr	r3, [pc, #20]	; (428 <_ZN19ExampleStateMachine22GetExampleStateMachineEPN12StateMachine11STT_MACHINEE+0x24>)
     412:	60c3      	str	r3, [r0, #12]
	state_machine->state_actions[STT_STATE::PROMPT_USER] = &PromptUserStateAction;
     414:	4b05      	ldr	r3, [pc, #20]	; (42c <_ZN19ExampleStateMachine22GetExampleStateMachineEPN12StateMachine11STT_MACHINEE+0x28>)
     416:	6103      	str	r3, [r0, #16]
	state_machine->state_actions[STT_STATE::ON] = &OnStateAction;
     418:	4b05      	ldr	r3, [pc, #20]	; (430 <_ZN19ExampleStateMachine22GetExampleStateMachineEPN12StateMachine11STT_MACHINEE+0x2c>)
     41a:	6143      	str	r3, [r0, #20]
}
     41c:	4770      	bx	lr
     41e:	46c0      	nop			; (mov r8, r8)
     420:	000001dd 	.word	0x000001dd
     424:	000001e1 	.word	0x000001e1
     428:	00000485 	.word	0x00000485
     42c:	00000279 	.word	0x00000279
     430:	000002a5 	.word	0x000002a5

00000434 <_ZN19ExampleStateMachine9UnpluggedEv>:
{
     434:	b510      	push	{r4, lr}
	bool unplugged =  connected && !usb_controller.IsConnected();
     436:	2328      	movs	r3, #40	; 0x28
     438:	4a09      	ldr	r2, [pc, #36]	; (460 <_ZN19ExampleStateMachine9UnpluggedEv+0x2c>)
     43a:	5cd4      	ldrb	r4, [r2, r3]
     43c:	2c00      	cmp	r4, #0
     43e:	d107      	bne.n	450 <_ZN19ExampleStateMachine9UnpluggedEv+0x1c>
	if(unplugged)
     440:	2c00      	cmp	r4, #0
     442:	d003      	beq.n	44c <_ZN19ExampleStateMachine9UnpluggedEv+0x18>
		connected = false;
     444:	2100      	movs	r1, #0
     446:	2328      	movs	r3, #40	; 0x28
     448:	4a05      	ldr	r2, [pc, #20]	; (460 <_ZN19ExampleStateMachine9UnpluggedEv+0x2c>)
     44a:	54d1      	strb	r1, [r2, r3]
}
     44c:	0020      	movs	r0, r4
     44e:	bd10      	pop	{r4, pc}
	bool unplugged =  connected && !usb_controller.IsConnected();
     450:	0010      	movs	r0, r2
     452:	4b04      	ldr	r3, [pc, #16]	; (464 <_ZN19ExampleStateMachine9UnpluggedEv+0x30>)
     454:	4798      	blx	r3
     456:	2800      	cmp	r0, #0
     458:	d0f2      	beq.n	440 <_ZN19ExampleStateMachine9UnpluggedEv+0xc>
     45a:	2400      	movs	r4, #0
     45c:	e7f0      	b.n	440 <_ZN19ExampleStateMachine9UnpluggedEv+0xc>
     45e:	46c0      	nop			; (mov r8, r8)
     460:	20000680 	.word	0x20000680
     464:	00002da5 	.word	0x00002da5

00000468 <_ZN19ExampleStateMachine6TurnOnEv>:
{
     468:	b510      	push	{r4, lr}
	return usb_controller.ReceiveString("on");
     46a:	2301      	movs	r3, #1
     46c:	2200      	movs	r2, #0
     46e:	4902      	ldr	r1, [pc, #8]	; (478 <_ZN19ExampleStateMachine6TurnOnEv+0x10>)
     470:	4802      	ldr	r0, [pc, #8]	; (47c <_ZN19ExampleStateMachine6TurnOnEv+0x14>)
     472:	4c03      	ldr	r4, [pc, #12]	; (480 <_ZN19ExampleStateMachine6TurnOnEv+0x18>)
     474:	47a0      	blx	r4
}
     476:	bd10      	pop	{r4, pc}
     478:	00003588 	.word	0x00003588
     47c:	20000680 	.word	0x20000680
     480:	00002c75 	.word	0x00002c75

00000484 <_ZN19ExampleStateMachine14OffStateActionEv>:
{
     484:	b530      	push	{r4, r5, lr}
     486:	b083      	sub	sp, #12
	StateMachine::STT_STATE current_state = STT_STATE::OFF;
     488:	2202      	movs	r2, #2
     48a:	466b      	mov	r3, sp
     48c:	71da      	strb	r2, [r3, #7]
	usb_controller.Task(echo);
     48e:	4c0f      	ldr	r4, [pc, #60]	; (4cc <_ZN19ExampleStateMachine14OffStateActionEv+0x48>)
     490:	2520      	movs	r5, #32
     492:	5d61      	ldrb	r1, [r4, r5]
     494:	0020      	movs	r0, r4
     496:	4b0e      	ldr	r3, [pc, #56]	; (4d0 <_ZN19ExampleStateMachine14OffStateActionEv+0x4c>)
     498:	4798      	blx	r3
	echo = false;
     49a:	2300      	movs	r3, #0
     49c:	5563      	strb	r3, [r4, r5]
	if(TurnOn())
     49e:	4b0d      	ldr	r3, [pc, #52]	; (4d4 <_ZN19ExampleStateMachine14OffStateActionEv+0x50>)
     4a0:	4798      	blx	r3
     4a2:	2800      	cmp	r0, #0
     4a4:	d109      	bne.n	4ba <_ZN19ExampleStateMachine14OffStateActionEv+0x36>
	StateMachine::ProcessSuperState(&current_state, STT_STATE::SUPER, &SuperStateAction);
     4a6:	466b      	mov	r3, sp
     4a8:	1ddc      	adds	r4, r3, #7
     4aa:	4a0b      	ldr	r2, [pc, #44]	; (4d8 <_ZN19ExampleStateMachine14OffStateActionEv+0x54>)
     4ac:	2105      	movs	r1, #5
     4ae:	0020      	movs	r0, r4
     4b0:	4b0a      	ldr	r3, [pc, #40]	; (4dc <_ZN19ExampleStateMachine14OffStateActionEv+0x58>)
     4b2:	4798      	blx	r3
	return current_state;
     4b4:	7820      	ldrb	r0, [r4, #0]
}
     4b6:	b003      	add	sp, #12
     4b8:	bd30      	pop	{r4, r5, pc}
		usb_controller.TransmitString("On command received! Turning on...\n");
     4ba:	4909      	ldr	r1, [pc, #36]	; (4e0 <_ZN19ExampleStateMachine14OffStateActionEv+0x5c>)
     4bc:	4803      	ldr	r0, [pc, #12]	; (4cc <_ZN19ExampleStateMachine14OffStateActionEv+0x48>)
     4be:	4b09      	ldr	r3, [pc, #36]	; (4e4 <_ZN19ExampleStateMachine14OffStateActionEv+0x60>)
     4c0:	4798      	blx	r3
		current_state = STT_STATE::PROMPT_USER;
     4c2:	2203      	movs	r2, #3
     4c4:	466b      	mov	r3, sp
     4c6:	71da      	strb	r2, [r3, #7]
     4c8:	e7ed      	b.n	4a6 <_ZN19ExampleStateMachine14OffStateActionEv+0x22>
     4ca:	46c0      	nop			; (mov r8, r8)
     4cc:	20000680 	.word	0x20000680
     4d0:	00002ce5 	.word	0x00002ce5
     4d4:	00000469 	.word	0x00000469
     4d8:	00000531 	.word	0x00000531
     4dc:	0000301b 	.word	0x0000301b
     4e0:	0000358c 	.word	0x0000358c
     4e4:	00002c3d 	.word	0x00002c3d

000004e8 <_ZN19ExampleStateMachine9PluggedInEv>:
{
     4e8:	b510      	push	{r4, lr}
	bool plugged_in = !connected && usb_controller.IsConnected();
     4ea:	2328      	movs	r3, #40	; 0x28
     4ec:	4a07      	ldr	r2, [pc, #28]	; (50c <_ZN19ExampleStateMachine9PluggedInEv+0x24>)
     4ee:	5cd3      	ldrb	r3, [r2, r3]
     4f0:	2b00      	cmp	r3, #0
     4f2:	d007      	beq.n	504 <_ZN19ExampleStateMachine9PluggedInEv+0x1c>
     4f4:	2000      	movs	r0, #0
	if(plugged_in)
     4f6:	2800      	cmp	r0, #0
     4f8:	d003      	beq.n	502 <_ZN19ExampleStateMachine9PluggedInEv+0x1a>
		connected = true;
     4fa:	2101      	movs	r1, #1
     4fc:	2328      	movs	r3, #40	; 0x28
     4fe:	4a03      	ldr	r2, [pc, #12]	; (50c <_ZN19ExampleStateMachine9PluggedInEv+0x24>)
     500:	54d1      	strb	r1, [r2, r3]
}
     502:	bd10      	pop	{r4, pc}
	bool plugged_in = !connected && usb_controller.IsConnected();
     504:	0010      	movs	r0, r2
     506:	4b02      	ldr	r3, [pc, #8]	; (510 <_ZN19ExampleStateMachine9PluggedInEv+0x28>)
     508:	4798      	blx	r3
     50a:	e7f4      	b.n	4f6 <_ZN19ExampleStateMachine9PluggedInEv+0xe>
     50c:	20000680 	.word	0x20000680
     510:	00002da5 	.word	0x00002da5

00000514 <_ZN19ExampleStateMachine7TurnOffEv>:
{
     514:	b510      	push	{r4, lr}
	return usb_controller.ReceiveString("off");
     516:	2301      	movs	r3, #1
     518:	2200      	movs	r2, #0
     51a:	4902      	ldr	r1, [pc, #8]	; (524 <_ZN19ExampleStateMachine7TurnOffEv+0x10>)
     51c:	4802      	ldr	r0, [pc, #8]	; (528 <_ZN19ExampleStateMachine7TurnOffEv+0x14>)
     51e:	4c03      	ldr	r4, [pc, #12]	; (52c <_ZN19ExampleStateMachine7TurnOffEv+0x18>)
     520:	47a0      	blx	r4
}
     522:	bd10      	pop	{r4, pc}
     524:	000035b0 	.word	0x000035b0
     528:	20000680 	.word	0x20000680
     52c:	00002c75 	.word	0x00002c75

00000530 <_ZN19ExampleStateMachine16SuperStateActionEv>:
{
     530:	b510      	push	{r4, lr}
	usb_controller.Task(echo);
     532:	4810      	ldr	r0, [pc, #64]	; (574 <_ZN19ExampleStateMachine16SuperStateActionEv+0x44>)
     534:	2320      	movs	r3, #32
     536:	5cc1      	ldrb	r1, [r0, r3]
     538:	4b0f      	ldr	r3, [pc, #60]	; (578 <_ZN19ExampleStateMachine16SuperStateActionEv+0x48>)
     53a:	4798      	blx	r3
	if(TurnOff())
     53c:	4b0f      	ldr	r3, [pc, #60]	; (57c <_ZN19ExampleStateMachine16SuperStateActionEv+0x4c>)
     53e:	4798      	blx	r3
     540:	2800      	cmp	r0, #0
     542:	d105      	bne.n	550 <_ZN19ExampleStateMachine16SuperStateActionEv+0x20>
	else if(Unplugged())
     544:	4b0e      	ldr	r3, [pc, #56]	; (580 <_ZN19ExampleStateMachine16SuperStateActionEv+0x50>)
     546:	4798      	blx	r3
     548:	2800      	cmp	r0, #0
     54a:	d007      	beq.n	55c <_ZN19ExampleStateMachine16SuperStateActionEv+0x2c>
		return STT_STATE::OFF;
     54c:	2002      	movs	r0, #2
     54e:	e004      	b.n	55a <_ZN19ExampleStateMachine16SuperStateActionEv+0x2a>
		usb_controller.TransmitString("Off command received! Turning off...\n");
     550:	490c      	ldr	r1, [pc, #48]	; (584 <_ZN19ExampleStateMachine16SuperStateActionEv+0x54>)
     552:	4808      	ldr	r0, [pc, #32]	; (574 <_ZN19ExampleStateMachine16SuperStateActionEv+0x44>)
     554:	4b0c      	ldr	r3, [pc, #48]	; (588 <_ZN19ExampleStateMachine16SuperStateActionEv+0x58>)
     556:	4798      	blx	r3
		return STT_STATE::OFF;
     558:	2002      	movs	r0, #2
}
     55a:	bd10      	pop	{r4, pc}
	else if(PluggedIn())
     55c:	4b0b      	ldr	r3, [pc, #44]	; (58c <_ZN19ExampleStateMachine16SuperStateActionEv+0x5c>)
     55e:	4798      	blx	r3
     560:	2800      	cmp	r0, #0
     562:	d101      	bne.n	568 <_ZN19ExampleStateMachine16SuperStateActionEv+0x38>
	return STT_STATE::SUPER;
     564:	2005      	movs	r0, #5
     566:	e7f8      	b.n	55a <_ZN19ExampleStateMachine16SuperStateActionEv+0x2a>
		usb_controller.TransmitString("USB plugged in!\n");
     568:	4909      	ldr	r1, [pc, #36]	; (590 <_ZN19ExampleStateMachine16SuperStateActionEv+0x60>)
     56a:	4802      	ldr	r0, [pc, #8]	; (574 <_ZN19ExampleStateMachine16SuperStateActionEv+0x44>)
     56c:	4b06      	ldr	r3, [pc, #24]	; (588 <_ZN19ExampleStateMachine16SuperStateActionEv+0x58>)
     56e:	4798      	blx	r3
		return STT_STATE::PROMPT_USER;
     570:	2003      	movs	r0, #3
     572:	e7f2      	b.n	55a <_ZN19ExampleStateMachine16SuperStateActionEv+0x2a>
     574:	20000680 	.word	0x20000680
     578:	00002ce5 	.word	0x00002ce5
     57c:	00000515 	.word	0x00000515
     580:	00000435 	.word	0x00000435
     584:	000035b4 	.word	0x000035b4
     588:	00002c3d 	.word	0x00002c3d
     58c:	000004e9 	.word	0x000004e9
     590:	000035dc 	.word	0x000035dc

00000594 <USB_Handler>:
{
     594:	b510      	push	{r4, lr}
	usb_controller.ISR();
     596:	4802      	ldr	r0, [pc, #8]	; (5a0 <USB_Handler+0xc>)
     598:	4b02      	ldr	r3, [pc, #8]	; (5a4 <USB_Handler+0x10>)
     59a:	4798      	blx	r3
}
     59c:	bd10      	pop	{r4, pc}
     59e:	46c0      	nop			; (mov r8, r8)
     5a0:	20000680 	.word	0x20000680
     5a4:	00002bd5 	.word	0x00002bd5

000005a8 <SERCOM0_Handler>:
}
     5a8:	4770      	bx	lr
	...

000005ac <_GLOBAL__sub_I_RX_BUFFER>:
     5ac:	b510      	push	{r4, lr}
     5ae:	4902      	ldr	r1, [pc, #8]	; (5b8 <_GLOBAL__sub_I_RX_BUFFER+0xc>)
     5b0:	2001      	movs	r0, #1
     5b2:	4b02      	ldr	r3, [pc, #8]	; (5bc <_GLOBAL__sub_I_RX_BUFFER+0x10>)
     5b4:	4798      	blx	r3
     5b6:	bd10      	pop	{r4, pc}
     5b8:	0000ffff 	.word	0x0000ffff
     5bc:	000003c9 	.word	0x000003c9

000005c0 <main>:
#include "sam.h"
#include "example_state_machine.h"


int main(void)
{
     5c0:	b500      	push	{lr}
     5c2:	b087      	sub	sp, #28
    StateMachine::STT_MACHINE example_state_machine;
	ExampleStateMachine::GetExampleStateMachine(&example_state_machine);
     5c4:	4668      	mov	r0, sp
     5c6:	4b03      	ldr	r3, [pc, #12]	; (5d4 <main+0x14>)
     5c8:	4798      	blx	r3
    while (1) 
    {
		StateMachine::ExecuteAction(&example_state_machine);
     5ca:	4668      	mov	r0, sp
     5cc:	4b02      	ldr	r3, [pc, #8]	; (5d8 <main+0x18>)
     5ce:	4798      	blx	r3
     5d0:	e7fb      	b.n	5ca <main+0xa>
     5d2:	46c0      	nop			; (mov r8, r8)
     5d4:	00000405 	.word	0x00000405
     5d8:	00003009 	.word	0x00003009

000005dc <_prep_out_transaction>:
// INTERNAL OBJECT & FUNCTION DECLARATION
//--------------------------------------------------------------------+
CFG_TUSB_MEM_SECTION static cdcd_interface_t _cdcd_itf[CFG_TUD_CDC];

static bool _prep_out_transaction (cdcd_interface_t* p_cdc)
{
     5dc:	b570      	push	{r4, r5, r6, lr}
     5de:	0004      	movs	r4, r0
  uint8_t const rhport = 0;
  uint16_t available = tu_fifo_remaining(&p_cdc->rx_ff);
     5e0:	0005      	movs	r5, r0
     5e2:	3510      	adds	r5, #16
     5e4:	0028      	movs	r0, r5
     5e6:	4b0f      	ldr	r3, [pc, #60]	; (624 <_prep_out_transaction+0x48>)
     5e8:	4798      	blx	r3

  // Prepare for incoming data but only allow what we can store in the ring buffer.
  // TODO Actually we can still carry out the transfer, keeping count of received bytes
  // and slowly move it to the FIFO when read().
  // This pre-check reduces endpoint claiming
  TU_VERIFY(available >= sizeof(p_cdc->epout_buf));
     5ea:	283f      	cmp	r0, #63	; 0x3f
     5ec:	d801      	bhi.n	5f2 <_prep_out_transaction+0x16>
     5ee:	2000      	movs	r0, #0
    // Release endpoint since we don't make any transfer
    usbd_edpt_release(rhport, p_cdc->ep_out);

    return false;
  }
}
     5f0:	bd70      	pop	{r4, r5, r6, pc}
  TU_VERIFY(usbd_edpt_claim(rhport, p_cdc->ep_out));
     5f2:	78e1      	ldrb	r1, [r4, #3]
     5f4:	2000      	movs	r0, #0
     5f6:	4b0c      	ldr	r3, [pc, #48]	; (628 <_prep_out_transaction+0x4c>)
     5f8:	4798      	blx	r3
     5fa:	2800      	cmp	r0, #0
     5fc:	d0f8      	beq.n	5f0 <_prep_out_transaction+0x14>
  available = tu_fifo_remaining(&p_cdc->rx_ff);
     5fe:	0028      	movs	r0, r5
     600:	4b08      	ldr	r3, [pc, #32]	; (624 <_prep_out_transaction+0x48>)
     602:	4798      	blx	r3
  if ( available >= sizeof(p_cdc->epout_buf) )
     604:	283f      	cmp	r0, #63	; 0x3f
     606:	d805      	bhi.n	614 <_prep_out_transaction+0x38>
    usbd_edpt_release(rhport, p_cdc->ep_out);
     608:	78e1      	ldrb	r1, [r4, #3]
     60a:	2000      	movs	r0, #0
     60c:	4b07      	ldr	r3, [pc, #28]	; (62c <_prep_out_transaction+0x50>)
     60e:	4798      	blx	r3
    return false;
     610:	2000      	movs	r0, #0
     612:	e7ed      	b.n	5f0 <_prep_out_transaction+0x14>
    return usbd_edpt_xfer(rhport, p_cdc->ep_out, p_cdc->epout_buf, sizeof(p_cdc->epout_buf));
     614:	0022      	movs	r2, r4
     616:	32b8      	adds	r2, #184	; 0xb8
     618:	78e1      	ldrb	r1, [r4, #3]
     61a:	2340      	movs	r3, #64	; 0x40
     61c:	2000      	movs	r0, #0
     61e:	4c04      	ldr	r4, [pc, #16]	; (630 <_prep_out_transaction+0x54>)
     620:	47a0      	blx	r4
     622:	e7e5      	b.n	5f0 <_prep_out_transaction+0x14>
     624:	00001095 	.word	0x00001095
     628:	00001861 	.word	0x00001861
     62c:	00001889 	.word	0x00001889
     630:	000018b1 	.word	0x000018b1

00000634 <tud_cdc_n_available>:

//--------------------------------------------------------------------+
// READ API
//--------------------------------------------------------------------+
uint32_t tud_cdc_n_available(uint8_t itf)
{
     634:	b510      	push	{r4, lr}
     636:	0003      	movs	r3, r0
  return tu_fifo_count(&_cdcd_itf[itf].rx_ff);
     638:	209c      	movs	r0, #156	; 0x9c
     63a:	0040      	lsls	r0, r0, #1
     63c:	4358      	muls	r0, r3
     63e:	3010      	adds	r0, #16
     640:	4b02      	ldr	r3, [pc, #8]	; (64c <tud_cdc_n_available+0x18>)
     642:	1818      	adds	r0, r3, r0
     644:	4b02      	ldr	r3, [pc, #8]	; (650 <tud_cdc_n_available+0x1c>)
     646:	4798      	blx	r3
}
     648:	bd10      	pop	{r4, pc}
     64a:	46c0      	nop			; (mov r8, r8)
     64c:	200006ac 	.word	0x200006ac
     650:	00001063 	.word	0x00001063

00000654 <tud_cdc_n_read>:

uint32_t tud_cdc_n_read(uint8_t itf, void* buffer, uint32_t bufsize)
{
     654:	b570      	push	{r4, r5, r6, lr}
  cdcd_interface_t* p_cdc = &_cdcd_itf[itf];
     656:	4c08      	ldr	r4, [pc, #32]	; (678 <tud_cdc_n_read+0x24>)
     658:	239c      	movs	r3, #156	; 0x9c
     65a:	005b      	lsls	r3, r3, #1
     65c:	4358      	muls	r0, r3
     65e:	1825      	adds	r5, r4, r0
  uint32_t num_read = tu_fifo_read_n(&p_cdc->rx_ff, buffer, (uint16_t) bufsize);
     660:	b292      	uxth	r2, r2
     662:	3010      	adds	r0, #16
     664:	1820      	adds	r0, r4, r0
     666:	4b05      	ldr	r3, [pc, #20]	; (67c <tud_cdc_n_read+0x28>)
     668:	4798      	blx	r3
     66a:	0004      	movs	r4, r0
  _prep_out_transaction(p_cdc);
     66c:	0028      	movs	r0, r5
     66e:	4b04      	ldr	r3, [pc, #16]	; (680 <tud_cdc_n_read+0x2c>)
     670:	4798      	blx	r3
  return num_read;
}
     672:	0020      	movs	r0, r4
     674:	bd70      	pop	{r4, r5, r6, pc}
     676:	46c0      	nop			; (mov r8, r8)
     678:	200006ac 	.word	0x200006ac
     67c:	000010e1 	.word	0x000010e1
     680:	000005dd 	.word	0x000005dd

00000684 <tud_cdc_n_write_flush>:

  return ret;
}

uint32_t tud_cdc_n_write_flush (uint8_t itf)
{
     684:	b570      	push	{r4, r5, r6, lr}
     686:	0005      	movs	r5, r0

// Check if device is ready to transfer
TU_ATTR_ALWAYS_INLINE static inline
bool tud_ready(void)
{
  return tud_mounted() && !tud_suspended();
     688:	4b2a      	ldr	r3, [pc, #168]	; (734 <tud_cdc_n_write_flush+0xb0>)
     68a:	4798      	blx	r3
     68c:	2800      	cmp	r0, #0
     68e:	d104      	bne.n	69a <tud_cdc_n_write_flush+0x16>
     690:	2300      	movs	r3, #0
  cdcd_interface_t* p_cdc = &_cdcd_itf[itf];

  // Skip if usb is not ready yet
  TU_VERIFY( tud_ready(), 0 );
     692:	2b00      	cmp	r3, #0
     694:	d109      	bne.n	6aa <tud_cdc_n_write_flush+0x26>
     696:	2000      	movs	r0, #0
    // Release endpoint since we don't make any transfer
    // Note: data is dropped if terminal is not connected
    usbd_edpt_release(rhport, p_cdc->ep_in);
    return 0;
  }
}
     698:	bd70      	pop	{r4, r5, r6, pc}
     69a:	4b27      	ldr	r3, [pc, #156]	; (738 <tud_cdc_n_write_flush+0xb4>)
     69c:	4798      	blx	r3
     69e:	2800      	cmp	r0, #0
     6a0:	d101      	bne.n	6a6 <tud_cdc_n_write_flush+0x22>
     6a2:	2301      	movs	r3, #1
     6a4:	e7f5      	b.n	692 <tud_cdc_n_write_flush+0xe>
     6a6:	2300      	movs	r3, #0
     6a8:	e7f3      	b.n	692 <tud_cdc_n_write_flush+0xe>
  if ( !tu_fifo_count(&p_cdc->tx_ff) ) return 0;
     6aa:	249c      	movs	r4, #156	; 0x9c
     6ac:	0064      	lsls	r4, r4, #1
     6ae:	436c      	muls	r4, r5
     6b0:	3420      	adds	r4, #32
     6b2:	4b22      	ldr	r3, [pc, #136]	; (73c <tud_cdc_n_write_flush+0xb8>)
     6b4:	191c      	adds	r4, r3, r4
     6b6:	3404      	adds	r4, #4
     6b8:	0020      	movs	r0, r4
     6ba:	4b21      	ldr	r3, [pc, #132]	; (740 <tud_cdc_n_write_flush+0xbc>)
     6bc:	4798      	blx	r3
     6be:	2800      	cmp	r0, #0
     6c0:	d101      	bne.n	6c6 <tud_cdc_n_write_flush+0x42>
     6c2:	2000      	movs	r0, #0
     6c4:	e7e8      	b.n	698 <tud_cdc_n_write_flush+0x14>
  TU_VERIFY( usbd_edpt_claim(rhport, p_cdc->ep_in), 0 );
     6c6:	229c      	movs	r2, #156	; 0x9c
     6c8:	0052      	lsls	r2, r2, #1
     6ca:	436a      	muls	r2, r5
     6cc:	4b1b      	ldr	r3, [pc, #108]	; (73c <tud_cdc_n_write_flush+0xb8>)
     6ce:	189b      	adds	r3, r3, r2
     6d0:	7899      	ldrb	r1, [r3, #2]
     6d2:	2000      	movs	r0, #0
     6d4:	4b1b      	ldr	r3, [pc, #108]	; (744 <tud_cdc_n_write_flush+0xc0>)
     6d6:	4798      	blx	r3
     6d8:	2800      	cmp	r0, #0
     6da:	d101      	bne.n	6e0 <tud_cdc_n_write_flush+0x5c>
     6dc:	2000      	movs	r0, #0
     6de:	e7db      	b.n	698 <tud_cdc_n_write_flush+0x14>
  uint16_t const count = tu_fifo_read_n(&p_cdc->tx_ff, p_cdc->epin_buf, sizeof(p_cdc->epin_buf));
     6e0:	239c      	movs	r3, #156	; 0x9c
     6e2:	005b      	lsls	r3, r3, #1
     6e4:	436b      	muls	r3, r5
     6e6:	33f8      	adds	r3, #248	; 0xf8
     6e8:	4e14      	ldr	r6, [pc, #80]	; (73c <tud_cdc_n_write_flush+0xb8>)
     6ea:	18f6      	adds	r6, r6, r3
     6ec:	2240      	movs	r2, #64	; 0x40
     6ee:	0031      	movs	r1, r6
     6f0:	0020      	movs	r0, r4
     6f2:	4b15      	ldr	r3, [pc, #84]	; (748 <tud_cdc_n_write_flush+0xc4>)
     6f4:	4798      	blx	r3
     6f6:	1e04      	subs	r4, r0, #0
  if ( count )
     6f8:	d00e      	beq.n	718 <tud_cdc_n_write_flush+0x94>
    TU_ASSERT( usbd_edpt_xfer(rhport, p_cdc->ep_in, p_cdc->epin_buf, count), 0 );
     6fa:	239c      	movs	r3, #156	; 0x9c
     6fc:	005b      	lsls	r3, r3, #1
     6fe:	436b      	muls	r3, r5
     700:	4d0e      	ldr	r5, [pc, #56]	; (73c <tud_cdc_n_write_flush+0xb8>)
     702:	18ed      	adds	r5, r5, r3
     704:	78a9      	ldrb	r1, [r5, #2]
     706:	0003      	movs	r3, r0
     708:	0032      	movs	r2, r6
     70a:	2000      	movs	r0, #0
     70c:	4d0f      	ldr	r5, [pc, #60]	; (74c <tud_cdc_n_write_flush+0xc8>)
     70e:	47a8      	blx	r5
     710:	2800      	cmp	r0, #0
     712:	d00c      	beq.n	72e <tud_cdc_n_write_flush+0xaa>
    return count;
     714:	0020      	movs	r0, r4
     716:	e7bf      	b.n	698 <tud_cdc_n_write_flush+0x14>
    usbd_edpt_release(rhport, p_cdc->ep_in);
     718:	239c      	movs	r3, #156	; 0x9c
     71a:	005b      	lsls	r3, r3, #1
     71c:	436b      	muls	r3, r5
     71e:	4d07      	ldr	r5, [pc, #28]	; (73c <tud_cdc_n_write_flush+0xb8>)
     720:	18ed      	adds	r5, r5, r3
     722:	78a9      	ldrb	r1, [r5, #2]
     724:	2000      	movs	r0, #0
     726:	4b0a      	ldr	r3, [pc, #40]	; (750 <tud_cdc_n_write_flush+0xcc>)
     728:	4798      	blx	r3
    return 0;
     72a:	2000      	movs	r0, #0
     72c:	e7b4      	b.n	698 <tud_cdc_n_write_flush+0x14>
    TU_ASSERT( usbd_edpt_xfer(rhport, p_cdc->ep_in, p_cdc->epin_buf, count), 0 );
     72e:	2000      	movs	r0, #0
     730:	e7b2      	b.n	698 <tud_cdc_n_write_flush+0x14>
     732:	46c0      	nop			; (mov r8, r8)
     734:	000014e1 	.word	0x000014e1
     738:	000014f1 	.word	0x000014f1
     73c:	200006ac 	.word	0x200006ac
     740:	00001063 	.word	0x00001063
     744:	00001861 	.word	0x00001861
     748:	000010e1 	.word	0x000010e1
     74c:	000018b1 	.word	0x000018b1
     750:	00001889 	.word	0x00001889

00000754 <tud_cdc_n_write>:
{
     754:	b570      	push	{r4, r5, r6, lr}
     756:	0005      	movs	r5, r0
  uint16_t ret = tu_fifo_write_n(&p_cdc->tx_ff, buffer, (uint16_t) bufsize);
     758:	249c      	movs	r4, #156	; 0x9c
     75a:	0064      	lsls	r4, r4, #1
     75c:	4344      	muls	r4, r0
     75e:	3420      	adds	r4, #32
     760:	4b09      	ldr	r3, [pc, #36]	; (788 <tud_cdc_n_write+0x34>)
     762:	191c      	adds	r4, r3, r4
     764:	3404      	adds	r4, #4
     766:	b292      	uxth	r2, r2
     768:	0020      	movs	r0, r4
     76a:	4b08      	ldr	r3, [pc, #32]	; (78c <tud_cdc_n_write+0x38>)
     76c:	4798      	blx	r3
     76e:	0006      	movs	r6, r0
  if ( tu_fifo_count(&p_cdc->tx_ff) >= BULK_PACKET_SIZE )
     770:	0020      	movs	r0, r4
     772:	4b07      	ldr	r3, [pc, #28]	; (790 <tud_cdc_n_write+0x3c>)
     774:	4798      	blx	r3
     776:	283f      	cmp	r0, #63	; 0x3f
     778:	d801      	bhi.n	77e <tud_cdc_n_write+0x2a>
}
     77a:	0030      	movs	r0, r6
     77c:	bd70      	pop	{r4, r5, r6, pc}
    tud_cdc_n_write_flush(itf);
     77e:	0028      	movs	r0, r5
     780:	4b04      	ldr	r3, [pc, #16]	; (794 <tud_cdc_n_write+0x40>)
     782:	4798      	blx	r3
     784:	e7f9      	b.n	77a <tud_cdc_n_write+0x26>
     786:	46c0      	nop			; (mov r8, r8)
     788:	200006ac 	.word	0x200006ac
     78c:	00001151 	.word	0x00001151
     790:	00001063 	.word	0x00001063
     794:	00000685 	.word	0x00000685

00000798 <tud_cdc_n_write_clear>:
{
  return tu_fifo_remaining(&_cdcd_itf[itf].tx_ff);
}

bool tud_cdc_n_write_clear (uint8_t itf)
{
     798:	b510      	push	{r4, lr}
  return tu_fifo_clear(&_cdcd_itf[itf].tx_ff);
     79a:	239c      	movs	r3, #156	; 0x9c
     79c:	005b      	lsls	r3, r3, #1
     79e:	4343      	muls	r3, r0
     7a0:	3320      	adds	r3, #32
     7a2:	4803      	ldr	r0, [pc, #12]	; (7b0 <tud_cdc_n_write_clear+0x18>)
     7a4:	18c0      	adds	r0, r0, r3
     7a6:	3004      	adds	r0, #4
     7a8:	4b02      	ldr	r3, [pc, #8]	; (7b4 <tud_cdc_n_write_clear+0x1c>)
     7aa:	4798      	blx	r3
}
     7ac:	bd10      	pop	{r4, pc}
     7ae:	46c0      	nop			; (mov r8, r8)
     7b0:	200006ac 	.word	0x200006ac
     7b4:	00001161 	.word	0x00001161

000007b8 <cdcd_init>:

//--------------------------------------------------------------------+
// USBD Driver API
//--------------------------------------------------------------------+
void cdcd_init(void)
{
     7b8:	b5f0      	push	{r4, r5, r6, r7, lr}
     7ba:	b083      	sub	sp, #12
  tu_memclr(_cdcd_itf, sizeof(_cdcd_itf));
     7bc:	229c      	movs	r2, #156	; 0x9c
     7be:	0052      	lsls	r2, r2, #1
     7c0:	2100      	movs	r1, #0
     7c2:	4819      	ldr	r0, [pc, #100]	; (828 <cdcd_init+0x70>)
     7c4:	4b19      	ldr	r3, [pc, #100]	; (82c <cdcd_init+0x74>)
     7c6:	4798      	blx	r3

  for(uint8_t i=0; i<CFG_TUD_CDC; i++)
     7c8:	2600      	movs	r6, #0
     7ca:	2e00      	cmp	r6, #0
     7cc:	d001      	beq.n	7d2 <cdcd_init+0x1a>
#if CFG_FIFO_MUTEX
    tu_fifo_config_mutex(&p_cdc->rx_ff, NULL, osal_mutex_create(&p_cdc->rx_ff_mutex));
    tu_fifo_config_mutex(&p_cdc->tx_ff, osal_mutex_create(&p_cdc->tx_ff_mutex), NULL);
#endif
  }
}
     7ce:	b003      	add	sp, #12
     7d0:	bdf0      	pop	{r4, r5, r6, r7, pc}
    p_cdc->wanted_char = (char) -1;
     7d2:	4c15      	ldr	r4, [pc, #84]	; (828 <cdcd_init+0x70>)
     7d4:	259c      	movs	r5, #156	; 0x9c
     7d6:	006d      	lsls	r5, r5, #1
     7d8:	4375      	muls	r5, r6
     7da:	1963      	adds	r3, r4, r5
     7dc:	22ff      	movs	r2, #255	; 0xff
     7de:	715a      	strb	r2, [r3, #5]
    p_cdc->line_coding.bit_rate  = 115200;
     7e0:	2200      	movs	r2, #0
     7e2:	4913      	ldr	r1, [pc, #76]	; (830 <cdcd_init+0x78>)
     7e4:	80d9      	strh	r1, [r3, #6]
     7e6:	2101      	movs	r1, #1
     7e8:	8119      	strh	r1, [r3, #8]
    p_cdc->line_coding.stop_bits = 0;
     7ea:	729a      	strb	r2, [r3, #10]
    p_cdc->line_coding.parity    = 0;
     7ec:	72da      	strb	r2, [r3, #11]
    p_cdc->line_coding.data_bits = 8;
     7ee:	2208      	movs	r2, #8
     7f0:	731a      	strb	r2, [r3, #12]
    tu_fifo_config(&p_cdc->rx_ff, p_cdc->rx_ff_buf, TU_ARRAY_SIZE(p_cdc->rx_ff_buf), 1, false);
     7f2:	0029      	movs	r1, r5
     7f4:	3138      	adds	r1, #56	; 0x38
     7f6:	1861      	adds	r1, r4, r1
     7f8:	0028      	movs	r0, r5
     7fa:	3010      	adds	r0, #16
     7fc:	1820      	adds	r0, r4, r0
     7fe:	2300      	movs	r3, #0
     800:	9300      	str	r3, [sp, #0]
     802:	3301      	adds	r3, #1
     804:	3238      	adds	r2, #56	; 0x38
     806:	4f0b      	ldr	r7, [pc, #44]	; (834 <cdcd_init+0x7c>)
     808:	47b8      	blx	r7
    tu_fifo_config(&p_cdc->tx_ff, p_cdc->tx_ff_buf, TU_ARRAY_SIZE(p_cdc->tx_ff_buf), 1, true);
     80a:	0029      	movs	r1, r5
     80c:	3178      	adds	r1, #120	; 0x78
     80e:	1861      	adds	r1, r4, r1
     810:	0028      	movs	r0, r5
     812:	3020      	adds	r0, #32
     814:	1820      	adds	r0, r4, r0
     816:	3004      	adds	r0, #4
     818:	2301      	movs	r3, #1
     81a:	9300      	str	r3, [sp, #0]
     81c:	2240      	movs	r2, #64	; 0x40
     81e:	47b8      	blx	r7
  for(uint8_t i=0; i<CFG_TUD_CDC; i++)
     820:	3601      	adds	r6, #1
     822:	b2f6      	uxtb	r6, r6
     824:	e7d1      	b.n	7ca <cdcd_init+0x12>
     826:	46c0      	nop			; (mov r8, r8)
     828:	200006ac 	.word	0x200006ac
     82c:	0000325d 	.word	0x0000325d
     830:	ffffc200 	.word	0xffffc200
     834:	00001031 	.word	0x00001031

00000838 <cdcd_reset>:

void cdcd_reset(uint8_t rhport)
{
     838:	b5f8      	push	{r3, r4, r5, r6, r7, lr}
  (void) rhport;

  for(uint8_t i=0; i<CFG_TUD_CDC; i++)
     83a:	2500      	movs	r5, #0
     83c:	2d00      	cmp	r5, #0
     83e:	d000      	beq.n	842 <cdcd_reset+0xa>
    tu_memclr(p_cdc, ITF_MEM_RESET_SIZE);
    tu_fifo_clear(&p_cdc->rx_ff);
    tu_fifo_clear(&p_cdc->tx_ff);
    tu_fifo_set_overwritable(&p_cdc->tx_ff, true);
  }
}
     840:	bdf8      	pop	{r3, r4, r5, r6, r7, pc}
    cdcd_interface_t* p_cdc = &_cdcd_itf[i];
     842:	4c0d      	ldr	r4, [pc, #52]	; (878 <cdcd_reset+0x40>)
     844:	269c      	movs	r6, #156	; 0x9c
     846:	0076      	lsls	r6, r6, #1
     848:	436e      	muls	r6, r5
     84a:	19a0      	adds	r0, r4, r6
    tu_memclr(p_cdc, ITF_MEM_RESET_SIZE);
     84c:	2205      	movs	r2, #5
     84e:	2100      	movs	r1, #0
     850:	4b0a      	ldr	r3, [pc, #40]	; (87c <cdcd_reset+0x44>)
     852:	4798      	blx	r3
    tu_fifo_clear(&p_cdc->rx_ff);
     854:	0030      	movs	r0, r6
     856:	3010      	adds	r0, #16
     858:	1820      	adds	r0, r4, r0
     85a:	4f09      	ldr	r7, [pc, #36]	; (880 <cdcd_reset+0x48>)
     85c:	47b8      	blx	r7
    tu_fifo_clear(&p_cdc->tx_ff);
     85e:	3620      	adds	r6, #32
     860:	19a4      	adds	r4, r4, r6
     862:	3404      	adds	r4, #4
     864:	0020      	movs	r0, r4
     866:	47b8      	blx	r7
    tu_fifo_set_overwritable(&p_cdc->tx_ff, true);
     868:	2101      	movs	r1, #1
     86a:	0020      	movs	r0, r4
     86c:	4b05      	ldr	r3, [pc, #20]	; (884 <cdcd_reset+0x4c>)
     86e:	4798      	blx	r3
  for(uint8_t i=0; i<CFG_TUD_CDC; i++)
     870:	3501      	adds	r5, #1
     872:	b2ed      	uxtb	r5, r5
     874:	e7e2      	b.n	83c <cdcd_reset+0x4>
     876:	46c0      	nop			; (mov r8, r8)
     878:	200006ac 	.word	0x200006ac
     87c:	0000325d 	.word	0x0000325d
     880:	00001161 	.word	0x00001161
     884:	0000117b 	.word	0x0000117b

00000888 <cdcd_open>:

uint16_t cdcd_open(uint8_t rhport, tusb_desc_interface_t const * itf_desc, uint16_t max_len)
{
     888:	b5f0      	push	{r4, r5, r6, r7, lr}
     88a:	b083      	sub	sp, #12
     88c:	0005      	movs	r5, r0
  // Only support ACM subclass
  TU_VERIFY( TUSB_CLASS_CDC                           == itf_desc->bInterfaceClass &&
     88e:	794b      	ldrb	r3, [r1, #5]
     890:	2b02      	cmp	r3, #2
     892:	d003      	beq.n	89c <cdcd_open+0x14>
     894:	2400      	movs	r4, #0

  // Prepare for incoming data
  _prep_out_transaction(p_cdc);

  return drv_len;
}
     896:	0020      	movs	r0, r4
     898:	b003      	add	sp, #12
     89a:	bdf0      	pop	{r4, r5, r6, r7, pc}
  TU_VERIFY( TUSB_CLASS_CDC                           == itf_desc->bInterfaceClass &&
     89c:	798b      	ldrb	r3, [r1, #6]
     89e:	2b02      	cmp	r3, #2
     8a0:	d001      	beq.n	8a6 <cdcd_open+0x1e>
     8a2:	2400      	movs	r4, #0
     8a4:	e7f7      	b.n	896 <cdcd_open+0xe>
     8a6:	2300      	movs	r3, #0
  for(uint8_t cdc_id=0; cdc_id<CFG_TUD_CDC; cdc_id++)
     8a8:	2b00      	cmp	r3, #0
     8aa:	d111      	bne.n	8d0 <cdcd_open+0x48>
    if ( _cdcd_itf[cdc_id].ep_in == 0 )
     8ac:	0018      	movs	r0, r3
     8ae:	269c      	movs	r6, #156	; 0x9c
     8b0:	0076      	lsls	r6, r6, #1
     8b2:	435e      	muls	r6, r3
     8b4:	4c28      	ldr	r4, [pc, #160]	; (958 <cdcd_open+0xd0>)
     8b6:	19a4      	adds	r4, r4, r6
     8b8:	78a4      	ldrb	r4, [r4, #2]
     8ba:	2c00      	cmp	r4, #0
     8bc:	d002      	beq.n	8c4 <cdcd_open+0x3c>
  for(uint8_t cdc_id=0; cdc_id<CFG_TUD_CDC; cdc_id++)
     8be:	3301      	adds	r3, #1
     8c0:	b2db      	uxtb	r3, r3
     8c2:	e7f1      	b.n	8a8 <cdcd_open+0x20>
      p_cdc = &_cdcd_itf[cdc_id];
     8c4:	269c      	movs	r6, #156	; 0x9c
     8c6:	0076      	lsls	r6, r6, #1
     8c8:	4370      	muls	r0, r6
     8ca:	4e23      	ldr	r6, [pc, #140]	; (958 <cdcd_open+0xd0>)
     8cc:	1836      	adds	r6, r6, r0
      break;
     8ce:	e000      	b.n	8d2 <cdcd_open+0x4a>
  cdcd_interface_t * p_cdc = NULL;
     8d0:	2600      	movs	r6, #0
  TU_ASSERT(p_cdc, 0);
     8d2:	2e00      	cmp	r6, #0
     8d4:	d039      	beq.n	94a <cdcd_open+0xc2>
  p_cdc->itf_num = itf_desc->bInterfaceNumber;
     8d6:	788b      	ldrb	r3, [r1, #2]
     8d8:	7033      	strb	r3, [r6, #0]
// Descriptor helper
//--------------------------------------------------------------------+
TU_ATTR_ALWAYS_INLINE static inline uint8_t const * tu_desc_next(void const* desc)
{
  uint8_t const* desc8 = (uint8_t const*) desc;
  return desc8 + desc8[DESC_OFFSET_LEN];
     8da:	780f      	ldrb	r7, [r1, #0]
     8dc:	19cf      	adds	r7, r1, r7
  uint16_t drv_len = sizeof(tusb_desc_interface_t);
     8de:	2409      	movs	r4, #9
}

TU_ATTR_ALWAYS_INLINE static inline uint8_t tu_desc_type(void const* desc)
{
  return ((uint8_t const*) desc)[DESC_OFFSET_TYPE];
     8e0:	787b      	ldrb	r3, [r7, #1]
  while ( TUSB_DESC_CS_INTERFACE == tu_desc_type(p_desc) && drv_len <= max_len )
     8e2:	2b24      	cmp	r3, #36	; 0x24
     8e4:	d106      	bne.n	8f4 <cdcd_open+0x6c>
     8e6:	4294      	cmp	r4, r2
     8e8:	d804      	bhi.n	8f4 <cdcd_open+0x6c>
}

TU_ATTR_ALWAYS_INLINE static inline uint8_t tu_desc_len(void const* desc)
{
  return ((uint8_t const*) desc)[DESC_OFFSET_LEN];
     8ea:	783b      	ldrb	r3, [r7, #0]
    drv_len += tu_desc_len(p_desc);
     8ec:	191c      	adds	r4, r3, r4
     8ee:	b2a4      	uxth	r4, r4
  return desc8 + desc8[DESC_OFFSET_LEN];
     8f0:	18ff      	adds	r7, r7, r3
     8f2:	e7f5      	b.n	8e0 <cdcd_open+0x58>
  if ( TUSB_DESC_ENDPOINT == tu_desc_type(p_desc) )
     8f4:	2b05      	cmp	r3, #5
     8f6:	d006      	beq.n	906 <cdcd_open+0x7e>
  return ((uint8_t const*) desc)[DESC_OFFSET_TYPE];
     8f8:	787b      	ldrb	r3, [r7, #1]
  if ( (TUSB_DESC_INTERFACE == tu_desc_type(p_desc)) &&
     8fa:	2b04      	cmp	r3, #4
     8fc:	d010      	beq.n	920 <cdcd_open+0x98>
  _prep_out_transaction(p_cdc);
     8fe:	0030      	movs	r0, r6
     900:	4b16      	ldr	r3, [pc, #88]	; (95c <cdcd_open+0xd4>)
     902:	4798      	blx	r3
  return drv_len;
     904:	e7c7      	b.n	896 <cdcd_open+0xe>
    TU_ASSERT( usbd_edpt_open(rhport, desc_ep), 0 );
     906:	0039      	movs	r1, r7
     908:	0028      	movs	r0, r5
     90a:	4b15      	ldr	r3, [pc, #84]	; (960 <cdcd_open+0xd8>)
     90c:	4798      	blx	r3
     90e:	2800      	cmp	r0, #0
     910:	d01d      	beq.n	94e <cdcd_open+0xc6>
    p_cdc->ep_notif = desc_ep->bEndpointAddress;
     912:	78bb      	ldrb	r3, [r7, #2]
     914:	7073      	strb	r3, [r6, #1]
  return ((uint8_t const*) desc)[DESC_OFFSET_LEN];
     916:	783b      	ldrb	r3, [r7, #0]
    drv_len += tu_desc_len(p_desc);
     918:	191c      	adds	r4, r3, r4
     91a:	b2a4      	uxth	r4, r4
  return desc8 + desc8[DESC_OFFSET_LEN];
     91c:	18ff      	adds	r7, r7, r3
     91e:	e7eb      	b.n	8f8 <cdcd_open+0x70>
       (TUSB_CLASS_CDC_DATA == ((tusb_desc_interface_t const *) p_desc)->bInterfaceClass) )
     920:	797b      	ldrb	r3, [r7, #5]
  if ( (TUSB_DESC_INTERFACE == tu_desc_type(p_desc)) &&
     922:	2b0a      	cmp	r3, #10
     924:	d1eb      	bne.n	8fe <cdcd_open+0x76>
  return ((uint8_t const*) desc)[DESC_OFFSET_LEN];
     926:	7839      	ldrb	r1, [r7, #0]
    drv_len += tu_desc_len(p_desc);
     928:	190c      	adds	r4, r1, r4
     92a:	b2a4      	uxth	r4, r4
  return desc8 + desc8[DESC_OFFSET_LEN];
     92c:	1879      	adds	r1, r7, r1
    TU_ASSERT( usbd_open_edpt_pair(rhport, p_desc, 2, TUSB_XFER_BULK, &p_cdc->ep_out, &p_cdc->ep_in), 0 );
     92e:	1cb3      	adds	r3, r6, #2
     930:	9301      	str	r3, [sp, #4]
     932:	1cf3      	adds	r3, r6, #3
     934:	9300      	str	r3, [sp, #0]
     936:	2302      	movs	r3, #2
     938:	2202      	movs	r2, #2
     93a:	0028      	movs	r0, r5
     93c:	4d09      	ldr	r5, [pc, #36]	; (964 <cdcd_open+0xdc>)
     93e:	47a8      	blx	r5
     940:	2800      	cmp	r0, #0
     942:	d006      	beq.n	952 <cdcd_open+0xca>
    drv_len += 2*sizeof(tusb_desc_endpoint_t);
     944:	340e      	adds	r4, #14
     946:	b2a4      	uxth	r4, r4
     948:	e7d9      	b.n	8fe <cdcd_open+0x76>
  TU_ASSERT(p_cdc, 0);
     94a:	2400      	movs	r4, #0
     94c:	e7a3      	b.n	896 <cdcd_open+0xe>
    TU_ASSERT( usbd_edpt_open(rhport, desc_ep), 0 );
     94e:	2400      	movs	r4, #0
     950:	e7a1      	b.n	896 <cdcd_open+0xe>
    TU_ASSERT( usbd_open_edpt_pair(rhport, p_desc, 2, TUSB_XFER_BULK, &p_cdc->ep_out, &p_cdc->ep_in), 0 );
     952:	2400      	movs	r4, #0
     954:	e79f      	b.n	896 <cdcd_open+0xe>
     956:	46c0      	nop			; (mov r8, r8)
     958:	200006ac 	.word	0x200006ac
     95c:	000005dd 	.word	0x000005dd
     960:	000017b9 	.word	0x000017b9
     964:	000017f9 	.word	0x000017f9

00000968 <cdcd_control_xfer_cb>:

// Invoked when a control transfer occurred on an interface of this class
// Driver response accordingly to the request and the transfer stage (setup/data/ack)
// return false to stall control endpoint (e.g unsupported request)
bool cdcd_control_xfer_cb(uint8_t rhport, uint8_t stage, tusb_control_request_t const * request)
{
     968:	b5f8      	push	{r3, r4, r5, r6, r7, lr}
     96a:	0015      	movs	r5, r2
  // Handle class request only
  TU_VERIFY(request->bmRequestType_bit.type == TUSB_REQ_TYPE_CLASS);
     96c:	7812      	ldrb	r2, [r2, #0]
     96e:	2360      	movs	r3, #96	; 0x60
     970:	4013      	ands	r3, r2
     972:	2b20      	cmp	r3, #32
     974:	d001      	beq.n	97a <cdcd_control_xfer_cb+0x12>
     976:	2000      	movs	r0, #0

    default: return false; // stall unsupported request
  }

  return true;
}
     978:	bdf8      	pop	{r3, r4, r5, r6, r7, pc}
     97a:	4a40      	ldr	r2, [pc, #256]	; (a7c <cdcd_control_xfer_cb+0x114>)
     97c:	2400      	movs	r4, #0
    if (itf >= TU_ARRAY_SIZE(_cdcd_itf)) return false;
     97e:	2c00      	cmp	r4, #0
     980:	d172      	bne.n	a68 <cdcd_control_xfer_cb+0x100>
    if ( p_cdc->itf_num == request->wIndex ) break;
     982:	7816      	ldrb	r6, [r2, #0]
     984:	792f      	ldrb	r7, [r5, #4]
     986:	796b      	ldrb	r3, [r5, #5]
     988:	021b      	lsls	r3, r3, #8
     98a:	433b      	orrs	r3, r7
     98c:	429e      	cmp	r6, r3
     98e:	d004      	beq.n	99a <cdcd_control_xfer_cb+0x32>
  for ( ; ; itf++, p_cdc++)
     990:	3401      	adds	r4, #1
     992:	b2e4      	uxtb	r4, r4
     994:	3239      	adds	r2, #57	; 0x39
     996:	32ff      	adds	r2, #255	; 0xff
    if (itf >= TU_ARRAY_SIZE(_cdcd_itf)) return false;
     998:	e7f1      	b.n	97e <cdcd_control_xfer_cb+0x16>
  switch ( request->bRequest )
     99a:	786b      	ldrb	r3, [r5, #1]
     99c:	2b21      	cmp	r3, #33	; 0x21
     99e:	d021      	beq.n	9e4 <cdcd_control_xfer_cb+0x7c>
     9a0:	d909      	bls.n	9b6 <cdcd_control_xfer_cb+0x4e>
     9a2:	2b22      	cmp	r3, #34	; 0x22
     9a4:	d029      	beq.n	9fa <cdcd_control_xfer_cb+0x92>
     9a6:	2b23      	cmp	r3, #35	; 0x23
     9a8:	d160      	bne.n	a6c <cdcd_control_xfer_cb+0x104>
      if (stage == CONTROL_STAGE_SETUP)
     9aa:	2901      	cmp	r1, #1
     9ac:	d04b      	beq.n	a46 <cdcd_control_xfer_cb+0xde>
      else if (stage == CONTROL_STAGE_ACK)
     9ae:	2903      	cmp	r1, #3
     9b0:	d04e      	beq.n	a50 <cdcd_control_xfer_cb+0xe8>
  return true;
     9b2:	2001      	movs	r0, #1
     9b4:	e7e0      	b.n	978 <cdcd_control_xfer_cb+0x10>
  switch ( request->bRequest )
     9b6:	2b20      	cmp	r3, #32
     9b8:	d158      	bne.n	a6c <cdcd_control_xfer_cb+0x104>
      if (stage == CONTROL_STAGE_SETUP)
     9ba:	2901      	cmp	r1, #1
     9bc:	d003      	beq.n	9c6 <cdcd_control_xfer_cb+0x5e>
      else if ( stage == CONTROL_STAGE_ACK)
     9be:	2903      	cmp	r1, #3
     9c0:	d008      	beq.n	9d4 <cdcd_control_xfer_cb+0x6c>
  return true;
     9c2:	2001      	movs	r0, #1
     9c4:	e7d8      	b.n	978 <cdcd_control_xfer_cb+0x10>
        tud_control_xfer(rhport, request, &p_cdc->line_coding, sizeof(cdc_line_coding_t));
     9c6:	3206      	adds	r2, #6
     9c8:	2307      	movs	r3, #7
     9ca:	0029      	movs	r1, r5
     9cc:	4c2c      	ldr	r4, [pc, #176]	; (a80 <cdcd_control_xfer_cb+0x118>)
     9ce:	47a0      	blx	r4
  return true;
     9d0:	2001      	movs	r0, #1
     9d2:	e7d1      	b.n	978 <cdcd_control_xfer_cb+0x10>
        if ( tud_cdc_line_coding_cb ) tud_cdc_line_coding_cb(itf, &p_cdc->line_coding);
     9d4:	4b2b      	ldr	r3, [pc, #172]	; (a84 <cdcd_control_xfer_cb+0x11c>)
     9d6:	2b00      	cmp	r3, #0
     9d8:	d04a      	beq.n	a70 <cdcd_control_xfer_cb+0x108>
     9da:	1d91      	adds	r1, r2, #6
     9dc:	0020      	movs	r0, r4
     9de:	4798      	blx	r3
  return true;
     9e0:	2001      	movs	r0, #1
     9e2:	e7c9      	b.n	978 <cdcd_control_xfer_cb+0x10>
      if (stage == CONTROL_STAGE_SETUP)
     9e4:	2901      	cmp	r1, #1
     9e6:	d001      	beq.n	9ec <cdcd_control_xfer_cb+0x84>
  return true;
     9e8:	2001      	movs	r0, #1
     9ea:	e7c5      	b.n	978 <cdcd_control_xfer_cb+0x10>
        tud_control_xfer(rhport, request, &p_cdc->line_coding, sizeof(cdc_line_coding_t));
     9ec:	3206      	adds	r2, #6
     9ee:	2307      	movs	r3, #7
     9f0:	0029      	movs	r1, r5
     9f2:	4c23      	ldr	r4, [pc, #140]	; (a80 <cdcd_control_xfer_cb+0x118>)
     9f4:	47a0      	blx	r4
  return true;
     9f6:	2001      	movs	r0, #1
     9f8:	e7be      	b.n	978 <cdcd_control_xfer_cb+0x10>
      if (stage == CONTROL_STAGE_SETUP)
     9fa:	2901      	cmp	r1, #1
     9fc:	d003      	beq.n	a06 <cdcd_control_xfer_cb+0x9e>
      else if (stage == CONTROL_STAGE_ACK)
     9fe:	2903      	cmp	r1, #3
     a00:	d006      	beq.n	a10 <cdcd_control_xfer_cb+0xa8>
  return true;
     a02:	2001      	movs	r0, #1
     a04:	e7b8      	b.n	978 <cdcd_control_xfer_cb+0x10>
        tud_control_status(rhport, request);
     a06:	0029      	movs	r1, r5
     a08:	4b1f      	ldr	r3, [pc, #124]	; (a88 <cdcd_control_xfer_cb+0x120>)
     a0a:	4798      	blx	r3
  return true;
     a0c:	2001      	movs	r0, #1
     a0e:	e7b3      	b.n	978 <cdcd_control_xfer_cb+0x10>
        bool const dtr = tu_bit_test(request->wValue, 0);
     a10:	78ab      	ldrb	r3, [r5, #2]
     a12:	78e9      	ldrb	r1, [r5, #3]
     a14:	0209      	lsls	r1, r1, #8
     a16:	4319      	orrs	r1, r3
     a18:	2301      	movs	r3, #1
     a1a:	400b      	ands	r3, r1
TU_ATTR_ALWAYS_INLINE static inline uint8_t tu_u16_low (uint16_t ui16) { return TU_U16_LOW(ui16); }

//------------- Bits -------------//
TU_ATTR_ALWAYS_INLINE static inline uint32_t tu_bit_set  (uint32_t value, uint8_t pos) { return value | TU_BIT(pos);                  }
TU_ATTR_ALWAYS_INLINE static inline uint32_t tu_bit_clear(uint32_t value, uint8_t pos) { return value & (~TU_BIT(pos));               }
TU_ATTR_ALWAYS_INLINE static inline bool     tu_bit_test (uint32_t value, uint8_t pos) { return (value & TU_BIT(pos)) ? true : false; }
     a1c:	001d      	movs	r5, r3
     a1e:	0848      	lsrs	r0, r1, #1
     a20:	2601      	movs	r6, #1
     a22:	4006      	ands	r6, r0
        p_cdc->line_state = (uint8_t) request->wValue;
     a24:	7111      	strb	r1, [r2, #4]
        tu_fifo_set_overwritable(&p_cdc->tx_ff, !dtr);
     a26:	4259      	negs	r1, r3
     a28:	4159      	adcs	r1, r3
     a2a:	b2c9      	uxtb	r1, r1
     a2c:	3224      	adds	r2, #36	; 0x24
     a2e:	0010      	movs	r0, r2
     a30:	4b16      	ldr	r3, [pc, #88]	; (a8c <cdcd_control_xfer_cb+0x124>)
     a32:	4798      	blx	r3
        if ( tud_cdc_line_state_cb ) tud_cdc_line_state_cb(itf, dtr, rts);
     a34:	4b16      	ldr	r3, [pc, #88]	; (a90 <cdcd_control_xfer_cb+0x128>)
     a36:	2b00      	cmp	r3, #0
     a38:	d01c      	beq.n	a74 <cdcd_control_xfer_cb+0x10c>
     a3a:	0032      	movs	r2, r6
     a3c:	0029      	movs	r1, r5
     a3e:	0020      	movs	r0, r4
     a40:	4798      	blx	r3
  return true;
     a42:	2001      	movs	r0, #1
     a44:	e798      	b.n	978 <cdcd_control_xfer_cb+0x10>
        tud_control_status(rhport, request);
     a46:	0029      	movs	r1, r5
     a48:	4b0f      	ldr	r3, [pc, #60]	; (a88 <cdcd_control_xfer_cb+0x120>)
     a4a:	4798      	blx	r3
  return true;
     a4c:	2001      	movs	r0, #1
     a4e:	e793      	b.n	978 <cdcd_control_xfer_cb+0x10>
        if ( tud_cdc_send_break_cb ) tud_cdc_send_break_cb(itf, request->wValue);
     a50:	4b10      	ldr	r3, [pc, #64]	; (a94 <cdcd_control_xfer_cb+0x12c>)
     a52:	2b00      	cmp	r3, #0
     a54:	d010      	beq.n	a78 <cdcd_control_xfer_cb+0x110>
     a56:	78ab      	ldrb	r3, [r5, #2]
     a58:	78e9      	ldrb	r1, [r5, #3]
     a5a:	0209      	lsls	r1, r1, #8
     a5c:	4319      	orrs	r1, r3
     a5e:	0020      	movs	r0, r4
     a60:	4b0c      	ldr	r3, [pc, #48]	; (a94 <cdcd_control_xfer_cb+0x12c>)
     a62:	4798      	blx	r3
  return true;
     a64:	2001      	movs	r0, #1
     a66:	e787      	b.n	978 <cdcd_control_xfer_cb+0x10>
    if (itf >= TU_ARRAY_SIZE(_cdcd_itf)) return false;
     a68:	2000      	movs	r0, #0
     a6a:	e785      	b.n	978 <cdcd_control_xfer_cb+0x10>
    default: return false; // stall unsupported request
     a6c:	2000      	movs	r0, #0
     a6e:	e783      	b.n	978 <cdcd_control_xfer_cb+0x10>
  return true;
     a70:	2001      	movs	r0, #1
     a72:	e781      	b.n	978 <cdcd_control_xfer_cb+0x10>
     a74:	2001      	movs	r0, #1
     a76:	e77f      	b.n	978 <cdcd_control_xfer_cb+0x10>
     a78:	2001      	movs	r0, #1
     a7a:	e77d      	b.n	978 <cdcd_control_xfer_cb+0x10>
     a7c:	200006ac 	.word	0x200006ac
     a80:	00001fe9 	.word	0x00001fe9
     a84:	00000000 	.word	0x00000000
     a88:	00001fa5 	.word	0x00001fa5
     a8c:	0000117b 	.word	0x0000117b
	...

00000a98 <cdcd_xfer_cb>:

bool cdcd_xfer_cb(uint8_t rhport, uint8_t ep_addr, xfer_result_t result, uint32_t xferred_bytes)
{
     a98:	b5f0      	push	{r4, r5, r6, r7, lr}
     a9a:	46d6      	mov	lr, sl
     a9c:	b500      	push	{lr}
     a9e:	b082      	sub	sp, #8
     aa0:	9000      	str	r0, [sp, #0]
     aa2:	468a      	mov	sl, r1
     aa4:	001d      	movs	r5, r3

  uint8_t itf;
  cdcd_interface_t* p_cdc;

  // Identify which interface to use
  for (itf = 0; itf < CFG_TUD_CDC; itf++)
     aa6:	2600      	movs	r6, #0
     aa8:	2e00      	cmp	r6, #0
     aaa:	d009      	beq.n	ac0 <cdcd_xfer_cb+0x28>
  {
    p_cdc = &_cdcd_itf[itf];
    if ( ( ep_addr == p_cdc->ep_out ) || ( ep_addr == p_cdc->ep_in ) ) break;
  }
  TU_ASSERT(itf < CFG_TUD_CDC);
     aac:	2e00      	cmp	r6, #0
     aae:	d172      	bne.n	b96 <cdcd_xfer_cb+0xfe>

  // Received new data
  if ( ep_addr == p_cdc->ep_out )
     ab0:	78fb      	ldrb	r3, [r7, #3]
     ab2:	459a      	cmp	sl, r3
     ab4:	d012      	beq.n	adc <cdcd_xfer_cb+0x44>
  }
  
  // Data sent to host, we continue to fetch from tx fifo to send.
  // Note: This will cause incorrect baudrate set in line coding.
  //       Though maybe the baudrate is not really important !!!
  if ( ep_addr == p_cdc->ep_in )
     ab6:	78bb      	ldrb	r3, [r7, #2]
     ab8:	459a      	cmp	sl, r3
     aba:	d045      	beq.n	b48 <cdcd_xfer_cb+0xb0>
    }
  }

  // nothing to do with notif endpoint for now

  return true;
     abc:	2401      	movs	r4, #1
     abe:	e06b      	b.n	b98 <cdcd_xfer_cb+0x100>
    p_cdc = &_cdcd_itf[itf];
     ac0:	279c      	movs	r7, #156	; 0x9c
     ac2:	007f      	lsls	r7, r7, #1
     ac4:	4377      	muls	r7, r6
     ac6:	4b39      	ldr	r3, [pc, #228]	; (bac <cdcd_xfer_cb+0x114>)
     ac8:	19df      	adds	r7, r3, r7
    if ( ( ep_addr == p_cdc->ep_out ) || ( ep_addr == p_cdc->ep_in ) ) break;
     aca:	78fb      	ldrb	r3, [r7, #3]
     acc:	4553      	cmp	r3, sl
     ace:	d0ed      	beq.n	aac <cdcd_xfer_cb+0x14>
     ad0:	78bb      	ldrb	r3, [r7, #2]
     ad2:	459a      	cmp	sl, r3
     ad4:	d0ea      	beq.n	aac <cdcd_xfer_cb+0x14>
  for (itf = 0; itf < CFG_TUD_CDC; itf++)
     ad6:	3601      	adds	r6, #1
     ad8:	b2f6      	uxtb	r6, r6
     ada:	e7e5      	b.n	aa8 <cdcd_xfer_cb+0x10>
    tu_fifo_write_n(&p_cdc->rx_ff, &p_cdc->epout_buf, (uint16_t) xferred_bytes);
     adc:	2310      	movs	r3, #16
     ade:	469c      	mov	ip, r3
     ae0:	44bc      	add	ip, r7
     ae2:	4663      	mov	r3, ip
     ae4:	9301      	str	r3, [sp, #4]
     ae6:	0039      	movs	r1, r7
     ae8:	31b8      	adds	r1, #184	; 0xb8
     aea:	b2aa      	uxth	r2, r5
     aec:	4660      	mov	r0, ip
     aee:	4b30      	ldr	r3, [pc, #192]	; (bb0 <cdcd_xfer_cb+0x118>)
     af0:	4798      	blx	r3
    if ( tud_cdc_rx_wanted_cb && (((signed char) p_cdc->wanted_char) != -1) )
     af2:	4b30      	ldr	r3, [pc, #192]	; (bb4 <cdcd_xfer_cb+0x11c>)
     af4:	2b00      	cmp	r3, #0
     af6:	d017      	beq.n	b28 <cdcd_xfer_cb+0x90>
     af8:	797b      	ldrb	r3, [r7, #5]
     afa:	2bff      	cmp	r3, #255	; 0xff
     afc:	d014      	beq.n	b28 <cdcd_xfer_cb+0x90>
     afe:	2400      	movs	r4, #0
     b00:	e000      	b.n	b04 <cdcd_xfer_cb+0x6c>
      for ( uint32_t i = 0; i < xferred_bytes; i++ )
     b02:	3401      	adds	r4, #1
     b04:	42ac      	cmp	r4, r5
     b06:	d20f      	bcs.n	b28 <cdcd_xfer_cb+0x90>
        if ( (p_cdc->wanted_char == p_cdc->epout_buf[i]) && !tu_fifo_empty(&p_cdc->rx_ff) )
     b08:	797a      	ldrb	r2, [r7, #5]
     b0a:	193b      	adds	r3, r7, r4
     b0c:	33b8      	adds	r3, #184	; 0xb8
     b0e:	781b      	ldrb	r3, [r3, #0]
     b10:	429a      	cmp	r2, r3
     b12:	d1f6      	bne.n	b02 <cdcd_xfer_cb+0x6a>
     b14:	9801      	ldr	r0, [sp, #4]
     b16:	4b28      	ldr	r3, [pc, #160]	; (bb8 <cdcd_xfer_cb+0x120>)
     b18:	4798      	blx	r3
     b1a:	2800      	cmp	r0, #0
     b1c:	d1f1      	bne.n	b02 <cdcd_xfer_cb+0x6a>
          tud_cdc_rx_wanted_cb(itf, p_cdc->wanted_char);
     b1e:	7979      	ldrb	r1, [r7, #5]
     b20:	0030      	movs	r0, r6
     b22:	4b24      	ldr	r3, [pc, #144]	; (bb4 <cdcd_xfer_cb+0x11c>)
     b24:	4798      	blx	r3
     b26:	e7ec      	b.n	b02 <cdcd_xfer_cb+0x6a>
    if (tud_cdc_rx_cb && !tu_fifo_empty(&p_cdc->rx_ff) ) tud_cdc_rx_cb(itf);
     b28:	4b24      	ldr	r3, [pc, #144]	; (bbc <cdcd_xfer_cb+0x124>)
     b2a:	2b00      	cmp	r3, #0
     b2c:	d004      	beq.n	b38 <cdcd_xfer_cb+0xa0>
     b2e:	9801      	ldr	r0, [sp, #4]
     b30:	4b21      	ldr	r3, [pc, #132]	; (bb8 <cdcd_xfer_cb+0x120>)
     b32:	4798      	blx	r3
     b34:	2800      	cmp	r0, #0
     b36:	d003      	beq.n	b40 <cdcd_xfer_cb+0xa8>
    _prep_out_transaction(p_cdc);
     b38:	0038      	movs	r0, r7
     b3a:	4b21      	ldr	r3, [pc, #132]	; (bc0 <cdcd_xfer_cb+0x128>)
     b3c:	4798      	blx	r3
     b3e:	e7ba      	b.n	ab6 <cdcd_xfer_cb+0x1e>
    if (tud_cdc_rx_cb && !tu_fifo_empty(&p_cdc->rx_ff) ) tud_cdc_rx_cb(itf);
     b40:	0030      	movs	r0, r6
     b42:	4b1e      	ldr	r3, [pc, #120]	; (bbc <cdcd_xfer_cb+0x124>)
     b44:	4798      	blx	r3
     b46:	e7f7      	b.n	b38 <cdcd_xfer_cb+0xa0>
    if ( tud_cdc_tx_complete_cb ) tud_cdc_tx_complete_cb(itf);
     b48:	4b1e      	ldr	r3, [pc, #120]	; (bc4 <cdcd_xfer_cb+0x12c>)
     b4a:	2b00      	cmp	r3, #0
     b4c:	d001      	beq.n	b52 <cdcd_xfer_cb+0xba>
     b4e:	0030      	movs	r0, r6
     b50:	4798      	blx	r3
    if ( 0 == tud_cdc_n_write_flush(itf) )
     b52:	0030      	movs	r0, r6
     b54:	4b1c      	ldr	r3, [pc, #112]	; (bc8 <cdcd_xfer_cb+0x130>)
     b56:	4798      	blx	r3
     b58:	2800      	cmp	r0, #0
     b5a:	d001      	beq.n	b60 <cdcd_xfer_cb+0xc8>
  return true;
     b5c:	2401      	movs	r4, #1
     b5e:	e01b      	b.n	b98 <cdcd_xfer_cb+0x100>
      if ( !tu_fifo_count(&p_cdc->tx_ff) && xferred_bytes && (0 == (xferred_bytes & (BULK_PACKET_SIZE-1))) )
     b60:	0038      	movs	r0, r7
     b62:	3024      	adds	r0, #36	; 0x24
     b64:	4b19      	ldr	r3, [pc, #100]	; (bcc <cdcd_xfer_cb+0x134>)
     b66:	4798      	blx	r3
     b68:	2800      	cmp	r0, #0
     b6a:	d11a      	bne.n	ba2 <cdcd_xfer_cb+0x10a>
     b6c:	2d00      	cmp	r5, #0
     b6e:	d01a      	beq.n	ba6 <cdcd_xfer_cb+0x10e>
     b70:	06ab      	lsls	r3, r5, #26
     b72:	d001      	beq.n	b78 <cdcd_xfer_cb+0xe0>
  return true;
     b74:	2401      	movs	r4, #1
     b76:	e00f      	b.n	b98 <cdcd_xfer_cb+0x100>
        if ( usbd_edpt_claim(rhport, p_cdc->ep_in) )
     b78:	78b9      	ldrb	r1, [r7, #2]
     b7a:	9800      	ldr	r0, [sp, #0]
     b7c:	4b14      	ldr	r3, [pc, #80]	; (bd0 <cdcd_xfer_cb+0x138>)
     b7e:	4798      	blx	r3
     b80:	1e04      	subs	r4, r0, #0
     b82:	d101      	bne.n	b88 <cdcd_xfer_cb+0xf0>
  return true;
     b84:	2401      	movs	r4, #1
     b86:	e007      	b.n	b98 <cdcd_xfer_cb+0x100>
          usbd_edpt_xfer(rhport, p_cdc->ep_in, NULL, 0);
     b88:	78b9      	ldrb	r1, [r7, #2]
     b8a:	2300      	movs	r3, #0
     b8c:	2200      	movs	r2, #0
     b8e:	9800      	ldr	r0, [sp, #0]
     b90:	4d10      	ldr	r5, [pc, #64]	; (bd4 <cdcd_xfer_cb+0x13c>)
     b92:	47a8      	blx	r5
     b94:	e000      	b.n	b98 <cdcd_xfer_cb+0x100>
  TU_ASSERT(itf < CFG_TUD_CDC);
     b96:	2400      	movs	r4, #0
}
     b98:	0020      	movs	r0, r4
     b9a:	b002      	add	sp, #8
     b9c:	bc04      	pop	{r2}
     b9e:	4692      	mov	sl, r2
     ba0:	bdf0      	pop	{r4, r5, r6, r7, pc}
  return true;
     ba2:	2401      	movs	r4, #1
     ba4:	e7f8      	b.n	b98 <cdcd_xfer_cb+0x100>
     ba6:	2401      	movs	r4, #1
     ba8:	e7f6      	b.n	b98 <cdcd_xfer_cb+0x100>
     baa:	46c0      	nop			; (mov r8, r8)
     bac:	200006ac 	.word	0x200006ac
     bb0:	00001151 	.word	0x00001151
     bb4:	00000000 	.word	0x00000000
     bb8:	00001087 	.word	0x00001087
     bbc:	00000000 	.word	0x00000000
     bc0:	000005dd 	.word	0x000005dd
     bc4:	00000000 	.word	0x00000000
     bc8:	00000685 	.word	0x00000685
     bcc:	00001063 	.word	0x00001063
     bd0:	00001861 	.word	0x00001861
     bd4:	000018b1 	.word	0x000018b1

00000bd8 <advance_pointer>:
static uint16_t advance_pointer(tu_fifo_t* f, uint16_t p, uint16_t offset)
{
  // We limit the index space of p such that a correct wrap around happens
  // Check for a wrap around or if we are in unused index space - This has to be checked first!!
  // We are exploiting the wrap around to the correct index
  if ((p > (uint16_t)(p + offset)) || ((uint16_t)(p + offset) > f->max_pointer_idx))
     bd8:	188a      	adds	r2, r1, r2
     bda:	b292      	uxth	r2, r2
     bdc:	4291      	cmp	r1, r2
     bde:	d802      	bhi.n	be6 <advance_pointer+0xe>
     be0:	8983      	ldrh	r3, [r0, #12]
     be2:	429a      	cmp	r2, r3
     be4:	d902      	bls.n	bec <advance_pointer+0x14>
  {
    p = (uint16_t) ((p + offset) + f->non_used_index_space);
     be6:	8940      	ldrh	r0, [r0, #10]
     be8:	1812      	adds	r2, r2, r0
     bea:	b292      	uxth	r2, r2
  else
  {
    p += offset;
  }
  return p;
}
     bec:	0010      	movs	r0, r2
     bee:	4770      	bx	lr

00000bf0 <backward_pointer>:
static uint16_t backward_pointer(tu_fifo_t* f, uint16_t p, uint16_t offset)
{
  // We limit the index space of p such that a correct wrap around happens
  // Check for a wrap around or if we are in unused index space - This has to be checked first!!
  // We are exploiting the wrap around to the correct index
  if ((p < (uint16_t)(p - offset)) || ((uint16_t)(p - offset) > f->max_pointer_idx))
     bf0:	1a8a      	subs	r2, r1, r2
     bf2:	b292      	uxth	r2, r2
     bf4:	4291      	cmp	r1, r2
     bf6:	d302      	bcc.n	bfe <backward_pointer+0xe>
     bf8:	8983      	ldrh	r3, [r0, #12]
     bfa:	429a      	cmp	r2, r3
     bfc:	d902      	bls.n	c04 <backward_pointer+0x14>
  {
    p = (uint16_t) ((p - offset) - f->non_used_index_space);
     bfe:	8940      	ldrh	r0, [r0, #10]
     c00:	1a12      	subs	r2, r2, r0
     c02:	b292      	uxth	r2, r2
  else
  {
    p -= offset;
  }
  return p;
}
     c04:	0010      	movs	r0, r2
     c06:	4770      	bx	lr

00000c08 <get_relative_pointer>:

// get relative from absolute pointer
static uint16_t get_relative_pointer(tu_fifo_t* f, uint16_t p)
{
  return _ff_mod(p, f->depth);
     c08:	8883      	ldrh	r3, [r0, #4]
     c0a:	e001      	b.n	c10 <get_relative_pointer+0x8>
  while ( idx >= depth) idx -= depth;
     c0c:	1ac9      	subs	r1, r1, r3
     c0e:	b289      	uxth	r1, r1
     c10:	428b      	cmp	r3, r1
     c12:	d9fb      	bls.n	c0c <get_relative_pointer+0x4>
}
     c14:	0008      	movs	r0, r1
     c16:	4770      	bx	lr

00000c18 <_tu_fifo_peek>:
}

// Works on local copies of w and r
// Must be protected by mutexes since in case of an overflow read pointer gets modified
static bool _tu_fifo_peek(tu_fifo_t* f, void * p_buffer, uint16_t wAbs, uint16_t rAbs)
{
     c18:	b5f8      	push	{r3, r4, r5, r6, r7, lr}
     c1a:	0005      	movs	r5, r0
     c1c:	000c      	movs	r4, r1
     c1e:	0011      	movs	r1, r2
     c20:	001e      	movs	r6, r3
  uint16_t cnt = wAbs-rAbs;
     c22:	1ad3      	subs	r3, r2, r3
     c24:	b29b      	uxth	r3, r3
  if (rAbs > wAbs) cnt -= f->non_used_index_space;
     c26:	42b2      	cmp	r2, r6
     c28:	d202      	bcs.n	c30 <_tu_fifo_peek+0x18>
     c2a:	8942      	ldrh	r2, [r0, #10]
     c2c:	1a9b      	subs	r3, r3, r2
     c2e:	b29b      	uxth	r3, r3
  uint16_t cnt = _tu_fifo_count(f, wAbs, rAbs);

  // Check overflow and correct if required
  if (cnt > f->depth)
     c30:	88af      	ldrh	r7, [r5, #4]
     c32:	429f      	cmp	r7, r3
     c34:	d205      	bcs.n	c42 <_tu_fifo_peek+0x2a>
  f->rd_idx = backward_pointer(f, wAbs, f->depth);
     c36:	003a      	movs	r2, r7
     c38:	0028      	movs	r0, r5
     c3a:	4b0a      	ldr	r3, [pc, #40]	; (c64 <_tu_fifo_peek+0x4c>)
     c3c:	4798      	blx	r3
     c3e:	8228      	strh	r0, [r5, #16]
  {
    _tu_fifo_correct_read_pointer(f, wAbs);
    cnt = f->depth;
     c40:	003b      	movs	r3, r7
  }

  // Skip beginning of buffer
  if (cnt == 0) return false;
     c42:	2b00      	cmp	r3, #0
     c44:	d101      	bne.n	c4a <_tu_fifo_peek+0x32>
     c46:	2000      	movs	r0, #0

  // Peek data
  _ff_pull(f, p_buffer, rRel);

  return true;
}
     c48:	bdf8      	pop	{r3, r4, r5, r6, r7, pc}
  uint16_t rRel = get_relative_pointer(f, rAbs);
     c4a:	0031      	movs	r1, r6
     c4c:	0028      	movs	r0, r5
     c4e:	4b06      	ldr	r3, [pc, #24]	; (c68 <_tu_fifo_peek+0x50>)
     c50:	4798      	blx	r3
  memcpy(app_buf, f->buffer + (rel * f->item_size), f->item_size);
     c52:	6829      	ldr	r1, [r5, #0]
     c54:	88ea      	ldrh	r2, [r5, #6]
     c56:	4350      	muls	r0, r2
     c58:	1809      	adds	r1, r1, r0
     c5a:	0020      	movs	r0, r4
     c5c:	4b03      	ldr	r3, [pc, #12]	; (c6c <_tu_fifo_peek+0x54>)
     c5e:	4798      	blx	r3
  return true;
     c60:	2001      	movs	r0, #1
     c62:	e7f1      	b.n	c48 <_tu_fifo_peek+0x30>
     c64:	00000bf1 	.word	0x00000bf1
     c68:	00000c09 	.word	0x00000c09
     c6c:	000031d9 	.word	0x000031d9

00000c70 <_ff_pull_const_addr>:
{
     c70:	b530      	push	{r4, r5, lr}
     c72:	b083      	sub	sp, #12
     c74:	0004      	movs	r4, r0
  uint16_t full_words = len >> 2;
     c76:	0893      	lsrs	r3, r2, #2
  while(full_words--)
     c78:	e00c      	b.n	c94 <_ff_pull_const_addr+0x24>
typedef struct { uint32_t val; } TU_ATTR_PACKED tu_unaligned_uint32_t;

TU_ATTR_ALWAYS_INLINE static inline uint32_t tu_unaligned_read32(const void* mem)
{
  tu_unaligned_uint32_t const* ua32 = (tu_unaligned_uint32_t const*) mem;
  return ua32->val;
     c7a:	780b      	ldrb	r3, [r1, #0]
     c7c:	7848      	ldrb	r0, [r1, #1]
     c7e:	0200      	lsls	r0, r0, #8
     c80:	4318      	orrs	r0, r3
     c82:	788b      	ldrb	r3, [r1, #2]
     c84:	041b      	lsls	r3, r3, #16
     c86:	4318      	orrs	r0, r3
     c88:	78cb      	ldrb	r3, [r1, #3]
     c8a:	061b      	lsls	r3, r3, #24
     c8c:	4303      	orrs	r3, r0
    *tx_fifo = tu_unaligned_read32(ff_buf);
     c8e:	6023      	str	r3, [r4, #0]
    ff_buf += 4;
     c90:	3104      	adds	r1, #4
  while(full_words--)
     c92:	002b      	movs	r3, r5
     c94:	1e5d      	subs	r5, r3, #1
     c96:	b2ad      	uxth	r5, r5
     c98:	2b00      	cmp	r3, #0
     c9a:	d1ee      	bne.n	c7a <_ff_pull_const_addr+0xa>
  uint8_t const bytes_rem = len & 0x03;
     c9c:	3303      	adds	r3, #3
     c9e:	401a      	ands	r2, r3
  if ( bytes_rem )
     ca0:	d101      	bne.n	ca6 <_ff_pull_const_addr+0x36>
}
     ca2:	b003      	add	sp, #12
     ca4:	bd30      	pop	{r4, r5, pc}
    uint32_t tmp32 = 0;
     ca6:	2300      	movs	r3, #0
     ca8:	9301      	str	r3, [sp, #4]
    memcpy(&tmp32, ff_buf, bytes_rem);
     caa:	a801      	add	r0, sp, #4
     cac:	4b02      	ldr	r3, [pc, #8]	; (cb8 <_ff_pull_const_addr+0x48>)
     cae:	4798      	blx	r3
    *tx_fifo = tmp32;
     cb0:	9b01      	ldr	r3, [sp, #4]
     cb2:	6023      	str	r3, [r4, #0]
}
     cb4:	e7f5      	b.n	ca2 <_ff_pull_const_addr+0x32>
     cb6:	46c0      	nop			; (mov r8, r8)
     cb8:	000031d9 	.word	0x000031d9

00000cbc <_ff_pull_n>:
{
     cbc:	b5f0      	push	{r4, r5, r6, r7, lr}
     cbe:	46ce      	mov	lr, r9
     cc0:	4647      	mov	r7, r8
     cc2:	b580      	push	{r7, lr}
     cc4:	b085      	sub	sp, #20
     cc6:	0007      	movs	r7, r0
     cc8:	9101      	str	r1, [sp, #4]
     cca:	a90c      	add	r1, sp, #48	; 0x30
     ccc:	7809      	ldrb	r1, [r1, #0]
  uint16_t const nLin = f->depth - rel;
     cce:	8884      	ldrh	r4, [r0, #4]
     cd0:	1ae4      	subs	r4, r4, r3
     cd2:	b2a4      	uxth	r4, r4
  uint16_t const nWrap = n - nLin; // only used if wrapped
     cd4:	1b15      	subs	r5, r2, r4
     cd6:	b2ad      	uxth	r5, r5
  uint16_t nLin_bytes = nLin * f->item_size;
     cd8:	88c0      	ldrh	r0, [r0, #6]
     cda:	0006      	movs	r6, r0
     cdc:	4366      	muls	r6, r4
     cde:	b2b6      	uxth	r6, r6
     ce0:	46b0      	mov	r8, r6
  uint16_t nWrap_bytes = nWrap * f->item_size;
     ce2:	4345      	muls	r5, r0
     ce4:	b2ad      	uxth	r5, r5
  uint8_t* ff_buf = f->buffer + (rel * f->item_size);
     ce6:	4343      	muls	r3, r0
     ce8:	683e      	ldr	r6, [r7, #0]
     cea:	46b1      	mov	r9, r6
     cec:	4499      	add	r9, r3
  switch (copy_mode)
     cee:	2900      	cmp	r1, #0
     cf0:	d006      	beq.n	d00 <_ff_pull_n+0x44>
     cf2:	2901      	cmp	r1, #1
     cf4:	d018      	beq.n	d28 <_ff_pull_n+0x6c>
}
     cf6:	b005      	add	sp, #20
     cf8:	bc0c      	pop	{r2, r3}
     cfa:	4690      	mov	r8, r2
     cfc:	4699      	mov	r9, r3
     cfe:	bdf0      	pop	{r4, r5, r6, r7, pc}
      if ( n <= nLin )
     d00:	4294      	cmp	r4, r2
     d02:	d305      	bcc.n	d10 <_ff_pull_n+0x54>
        memcpy(app_buf, ff_buf, n*f->item_size);
     d04:	4342      	muls	r2, r0
     d06:	4649      	mov	r1, r9
     d08:	9801      	ldr	r0, [sp, #4]
     d0a:	4b2b      	ldr	r3, [pc, #172]	; (db8 <_ff_pull_n+0xfc>)
     d0c:	4798      	blx	r3
     d0e:	e7f2      	b.n	cf6 <_ff_pull_n+0x3a>
        memcpy(app_buf, ff_buf, nLin_bytes);
     d10:	4642      	mov	r2, r8
     d12:	4649      	mov	r1, r9
     d14:	9e01      	ldr	r6, [sp, #4]
     d16:	0030      	movs	r0, r6
     d18:	4c27      	ldr	r4, [pc, #156]	; (db8 <_ff_pull_n+0xfc>)
     d1a:	47a0      	blx	r4
        memcpy((uint8_t*) app_buf + nLin_bytes, f->buffer, nWrap_bytes);
     d1c:	6839      	ldr	r1, [r7, #0]
     d1e:	0030      	movs	r0, r6
     d20:	4440      	add	r0, r8
     d22:	002a      	movs	r2, r5
     d24:	47a0      	blx	r4
     d26:	e7e6      	b.n	cf6 <_ff_pull_n+0x3a>
      if ( n <= nLin )
     d28:	4294      	cmp	r4, r2
     d2a:	d21e      	bcs.n	d6a <_ff_pull_n+0xae>
        uint16_t nLin_4n_bytes = nLin_bytes & 0xFFFC;
     d2c:	2303      	movs	r3, #3
     d2e:	4644      	mov	r4, r8
     d30:	439c      	bics	r4, r3
        _ff_pull_const_addr(app_buf, ff_buf, nLin_4n_bytes);
     d32:	0022      	movs	r2, r4
     d34:	4649      	mov	r1, r9
     d36:	9801      	ldr	r0, [sp, #4]
     d38:	4b20      	ldr	r3, [pc, #128]	; (dbc <_ff_pull_n+0x100>)
     d3a:	4798      	blx	r3
        ff_buf += nLin_4n_bytes;
     d3c:	0023      	movs	r3, r4
     d3e:	444b      	add	r3, r9
        uint8_t rem = nLin_bytes & 0x03;
     d40:	2003      	movs	r0, #3
     d42:	4642      	mov	r2, r8
     d44:	4010      	ands	r0, r2
        if (rem > 0)
     d46:	d035      	beq.n	db4 <_ff_pull_n+0xf8>
          uint8_t remrem = (uint8_t) tu_min16(nWrap_bytes, 4-rem);
     d48:	2204      	movs	r2, #4
     d4a:	1a12      	subs	r2, r2, r0
     d4c:	b292      	uxth	r2, r2
TU_ATTR_ALWAYS_INLINE static inline uint16_t tu_min16 (uint16_t x, uint16_t y) { return (x < y) ? x : y; }
     d4e:	1c29      	adds	r1, r5, #0
     d50:	4295      	cmp	r5, r2
     d52:	d900      	bls.n	d56 <_ff_pull_n+0x9a>
     d54:	1c11      	adds	r1, r2, #0
     d56:	b28c      	uxth	r4, r1
     d58:	b2e2      	uxtb	r2, r4
          nWrap_bytes -= remrem;
     d5a:	21ff      	movs	r1, #255	; 0xff
     d5c:	4021      	ands	r1, r4
     d5e:	1a6d      	subs	r5, r5, r1
     d60:	b2ad      	uxth	r5, r5
          uint32_t tmp32=0;
     d62:	2100      	movs	r1, #0
     d64:	9103      	str	r1, [sp, #12]
          uint8_t * dst_u8 = (uint8_t *)&tmp32;
     d66:	ac03      	add	r4, sp, #12
          while(rem--) *dst_u8++ = *ff_buf++;
     d68:	e00b      	b.n	d82 <_ff_pull_n+0xc6>
        _ff_pull_const_addr(app_buf, ff_buf, n*f->item_size);
     d6a:	4342      	muls	r2, r0
     d6c:	b292      	uxth	r2, r2
     d6e:	4649      	mov	r1, r9
     d70:	9801      	ldr	r0, [sp, #4]
     d72:	4b12      	ldr	r3, [pc, #72]	; (dbc <_ff_pull_n+0x100>)
     d74:	4798      	blx	r3
     d76:	e7be      	b.n	cf6 <_ff_pull_n+0x3a>
          while(rem--) *dst_u8++ = *ff_buf++;
     d78:	7818      	ldrb	r0, [r3, #0]
     d7a:	7020      	strb	r0, [r4, #0]
     d7c:	3401      	adds	r4, #1
     d7e:	0008      	movs	r0, r1
     d80:	3301      	adds	r3, #1
     d82:	1e41      	subs	r1, r0, #1
     d84:	b2c9      	uxtb	r1, r1
     d86:	2800      	cmp	r0, #0
     d88:	d1f6      	bne.n	d78 <_ff_pull_n+0xbc>
          ff_buf = f->buffer;
     d8a:	6839      	ldr	r1, [r7, #0]
          while(remrem--) *dst_u8++ = *ff_buf++;
     d8c:	e004      	b.n	d98 <_ff_pull_n+0xdc>
     d8e:	780a      	ldrb	r2, [r1, #0]
     d90:	7022      	strb	r2, [r4, #0]
     d92:	3401      	adds	r4, #1
     d94:	001a      	movs	r2, r3
     d96:	3101      	adds	r1, #1
     d98:	1e53      	subs	r3, r2, #1
     d9a:	b2db      	uxtb	r3, r3
     d9c:	2a00      	cmp	r2, #0
     d9e:	d1f6      	bne.n	d8e <_ff_pull_n+0xd2>
          *tx_fifo = tmp32;
     da0:	9b01      	ldr	r3, [sp, #4]
     da2:	9a03      	ldr	r2, [sp, #12]
     da4:	601a      	str	r2, [r3, #0]
        if (nWrap_bytes > 0) _ff_pull_const_addr(app_buf, ff_buf, nWrap_bytes);
     da6:	2d00      	cmp	r5, #0
     da8:	d0a5      	beq.n	cf6 <_ff_pull_n+0x3a>
     daa:	002a      	movs	r2, r5
     dac:	9801      	ldr	r0, [sp, #4]
     dae:	4b03      	ldr	r3, [pc, #12]	; (dbc <_ff_pull_n+0x100>)
     db0:	4798      	blx	r3
}
     db2:	e7a0      	b.n	cf6 <_ff_pull_n+0x3a>
          ff_buf = f->buffer; // wrap around to beginning
     db4:	6839      	ldr	r1, [r7, #0]
     db6:	e7f6      	b.n	da6 <_ff_pull_n+0xea>
     db8:	000031d9 	.word	0x000031d9
     dbc:	00000c71 	.word	0x00000c71

00000dc0 <_tu_fifo_peek_n>:

// Works on local copies of w and r
// Must be protected by mutexes since in case of an overflow read pointer gets modified
static uint16_t _tu_fifo_peek_n(tu_fifo_t* f, void * p_buffer, uint16_t n, uint16_t wAbs, uint16_t rAbs, tu_fifo_copy_mode_t copy_mode)
{
     dc0:	b5f0      	push	{r4, r5, r6, r7, lr}
     dc2:	b085      	sub	sp, #20
     dc4:	0005      	movs	r5, r0
     dc6:	9102      	str	r1, [sp, #8]
     dc8:	9203      	str	r2, [sp, #12]
     dca:	aa0a      	add	r2, sp, #40	; 0x28
     dcc:	8811      	ldrh	r1, [r2, #0]
     dce:	aa0b      	add	r2, sp, #44	; 0x2c
     dd0:	7817      	ldrb	r7, [r2, #0]
  uint16_t cnt = wAbs-rAbs;
     dd2:	1a5c      	subs	r4, r3, r1
     dd4:	b2a4      	uxth	r4, r4
  if (rAbs > wAbs) cnt -= f->non_used_index_space;
     dd6:	428b      	cmp	r3, r1
     dd8:	d202      	bcs.n	de0 <_tu_fifo_peek_n+0x20>
     dda:	8942      	ldrh	r2, [r0, #10]
     ddc:	1aa4      	subs	r4, r4, r2
     dde:	b2a4      	uxth	r4, r4
  uint16_t cnt = _tu_fifo_count(f, wAbs, rAbs);

  // Check overflow and correct if required
  if (cnt > f->depth)
     de0:	88ae      	ldrh	r6, [r5, #4]
     de2:	42a6      	cmp	r6, r4
     de4:	d208      	bcs.n	df8 <_tu_fifo_peek_n+0x38>
  f->rd_idx = backward_pointer(f, wAbs, f->depth);
     de6:	0032      	movs	r2, r6
     de8:	0019      	movs	r1, r3
     dea:	0028      	movs	r0, r5
     dec:	4b0c      	ldr	r3, [pc, #48]	; (e20 <_tu_fifo_peek_n+0x60>)
     dee:	4798      	blx	r3
     df0:	8228      	strh	r0, [r5, #16]
  {
    _tu_fifo_correct_read_pointer(f, wAbs);
    rAbs = f->rd_idx;
     df2:	8a29      	ldrh	r1, [r5, #16]
     df4:	b289      	uxth	r1, r1
    cnt = f->depth;
     df6:	0034      	movs	r4, r6
  }

  // Skip beginning of buffer
  if (cnt == 0) return 0;
     df8:	2c00      	cmp	r4, #0
     dfa:	d00d      	beq.n	e18 <_tu_fifo_peek_n+0x58>

  // Check if we can read something at and after offset - if too less is available we read what remains
  if (cnt < n) n = cnt;
     dfc:	9a03      	ldr	r2, [sp, #12]
     dfe:	4294      	cmp	r4, r2
     e00:	d300      	bcc.n	e04 <_tu_fifo_peek_n+0x44>
     e02:	0014      	movs	r4, r2

  uint16_t rRel = get_relative_pointer(f, rAbs);
     e04:	0028      	movs	r0, r5
     e06:	4b07      	ldr	r3, [pc, #28]	; (e24 <_tu_fifo_peek_n+0x64>)
     e08:	4798      	blx	r3
     e0a:	0003      	movs	r3, r0

  // Peek data
  _ff_pull_n(f, p_buffer, n, rRel, copy_mode);
     e0c:	9700      	str	r7, [sp, #0]
     e0e:	0022      	movs	r2, r4
     e10:	9902      	ldr	r1, [sp, #8]
     e12:	0028      	movs	r0, r5
     e14:	4d04      	ldr	r5, [pc, #16]	; (e28 <_tu_fifo_peek_n+0x68>)
     e16:	47a8      	blx	r5

  return n;
}
     e18:	0020      	movs	r0, r4
     e1a:	b005      	add	sp, #20
     e1c:	bdf0      	pop	{r4, r5, r6, r7, pc}
     e1e:	46c0      	nop			; (mov r8, r8)
     e20:	00000bf1 	.word	0x00000bf1
     e24:	00000c09 	.word	0x00000c09
     e28:	00000cbd 	.word	0x00000cbd

00000e2c <_tu_fifo_read_n>:

  return n;
}

static uint16_t _tu_fifo_read_n(tu_fifo_t* f, void * buffer, uint16_t n, tu_fifo_copy_mode_t copy_mode)
{
     e2c:	b530      	push	{r4, r5, lr}
     e2e:	b083      	sub	sp, #12
     e30:	0004      	movs	r4, r0
     e32:	001d      	movs	r5, r3
  _ff_lock(f->mutex_rd);

  // Peek the data
  // f->rd_idx might get modified in case of an overflow so we can not use a local variable
  n = _tu_fifo_peek_n(f, buffer, n, f->wr_idx, f->rd_idx, copy_mode);
     e34:	89c3      	ldrh	r3, [r0, #14]
     e36:	b29b      	uxth	r3, r3
     e38:	8a00      	ldrh	r0, [r0, #16]
     e3a:	9501      	str	r5, [sp, #4]
     e3c:	9000      	str	r0, [sp, #0]
     e3e:	0020      	movs	r0, r4
     e40:	4d06      	ldr	r5, [pc, #24]	; (e5c <_tu_fifo_read_n+0x30>)
     e42:	47a8      	blx	r5
     e44:	0005      	movs	r5, r0

  // Advance read pointer
  f->rd_idx = advance_pointer(f, f->rd_idx, n);
     e46:	8a21      	ldrh	r1, [r4, #16]
     e48:	b289      	uxth	r1, r1
     e4a:	0002      	movs	r2, r0
     e4c:	0020      	movs	r0, r4
     e4e:	4b04      	ldr	r3, [pc, #16]	; (e60 <_tu_fifo_read_n+0x34>)
     e50:	4798      	blx	r3
     e52:	8220      	strh	r0, [r4, #16]

  _ff_unlock(f->mutex_rd);
  return n;
}
     e54:	0028      	movs	r0, r5
     e56:	b003      	add	sp, #12
     e58:	bd30      	pop	{r4, r5, pc}
     e5a:	46c0      	nop			; (mov r8, r8)
     e5c:	00000dc1 	.word	0x00000dc1
     e60:	00000bd9 	.word	0x00000bd9

00000e64 <_ff_push_const_addr>:
{
     e64:	b530      	push	{r4, r5, lr}
     e66:	b083      	sub	sp, #12
  uint16_t full_words = len >> 2;
     e68:	0895      	lsrs	r5, r2, #2
  while(full_words--)
     e6a:	e009      	b.n	e80 <_ff_push_const_addr+0x1c>
    tu_unaligned_write32(ff_buf, *rx_fifo);
     e6c:	680b      	ldr	r3, [r1, #0]
}

TU_ATTR_ALWAYS_INLINE static inline void tu_unaligned_write32(void* mem, uint32_t value)
{
  tu_unaligned_uint32_t* ua32 = (tu_unaligned_uint32_t*) mem;
  ua32->val = value;
     e6e:	7003      	strb	r3, [r0, #0]
     e70:	0a1d      	lsrs	r5, r3, #8
     e72:	7045      	strb	r5, [r0, #1]
     e74:	0c1d      	lsrs	r5, r3, #16
     e76:	7085      	strb	r5, [r0, #2]
     e78:	0e1b      	lsrs	r3, r3, #24
     e7a:	70c3      	strb	r3, [r0, #3]
    ff_buf += 4;
     e7c:	3004      	adds	r0, #4
  while(full_words--)
     e7e:	0025      	movs	r5, r4
     e80:	1e6c      	subs	r4, r5, #1
     e82:	b2a4      	uxth	r4, r4
     e84:	2d00      	cmp	r5, #0
     e86:	d1f1      	bne.n	e6c <_ff_push_const_addr+0x8>
  uint8_t const bytes_rem = len & 0x03;
     e88:	2303      	movs	r3, #3
     e8a:	401a      	ands	r2, r3
  if ( bytes_rem )
     e8c:	d101      	bne.n	e92 <_ff_push_const_addr+0x2e>
}
     e8e:	b003      	add	sp, #12
     e90:	bd30      	pop	{r4, r5, pc}
    uint32_t tmp32 = *rx_fifo;
     e92:	680b      	ldr	r3, [r1, #0]
     e94:	9301      	str	r3, [sp, #4]
    memcpy(ff_buf, &tmp32, bytes_rem);
     e96:	a901      	add	r1, sp, #4
     e98:	4b01      	ldr	r3, [pc, #4]	; (ea0 <_ff_push_const_addr+0x3c>)
     e9a:	4798      	blx	r3
}
     e9c:	e7f7      	b.n	e8e <_ff_push_const_addr+0x2a>
     e9e:	46c0      	nop			; (mov r8, r8)
     ea0:	000031d9 	.word	0x000031d9

00000ea4 <_ff_push_n>:
{
     ea4:	b5f0      	push	{r4, r5, r6, r7, lr}
     ea6:	46ce      	mov	lr, r9
     ea8:	4647      	mov	r7, r8
     eaa:	b580      	push	{r7, lr}
     eac:	b085      	sub	sp, #20
     eae:	0007      	movs	r7, r0
     eb0:	9101      	str	r1, [sp, #4]
     eb2:	a90c      	add	r1, sp, #48	; 0x30
     eb4:	7808      	ldrb	r0, [r1, #0]
  uint16_t const nLin = f->depth - rel;
     eb6:	88bc      	ldrh	r4, [r7, #4]
     eb8:	1ae4      	subs	r4, r4, r3
     eba:	b2a4      	uxth	r4, r4
  uint16_t const nWrap = n - nLin;
     ebc:	1b15      	subs	r5, r2, r4
     ebe:	b2ad      	uxth	r5, r5
  uint16_t nLin_bytes = nLin * f->item_size;
     ec0:	88f9      	ldrh	r1, [r7, #6]
     ec2:	000e      	movs	r6, r1
     ec4:	4366      	muls	r6, r4
     ec6:	b2b6      	uxth	r6, r6
     ec8:	46b0      	mov	r8, r6
  uint16_t nWrap_bytes = nWrap * f->item_size;
     eca:	434d      	muls	r5, r1
     ecc:	b2ad      	uxth	r5, r5
  uint8_t* ff_buf = f->buffer + (rel * f->item_size);
     ece:	434b      	muls	r3, r1
     ed0:	683e      	ldr	r6, [r7, #0]
     ed2:	46b1      	mov	r9, r6
     ed4:	4499      	add	r9, r3
  switch (copy_mode)
     ed6:	2800      	cmp	r0, #0
     ed8:	d006      	beq.n	ee8 <_ff_push_n+0x44>
     eda:	2801      	cmp	r0, #1
     edc:	d018      	beq.n	f10 <_ff_push_n+0x6c>
}
     ede:	b005      	add	sp, #20
     ee0:	bc0c      	pop	{r2, r3}
     ee2:	4690      	mov	r8, r2
     ee4:	4699      	mov	r9, r3
     ee6:	bdf0      	pop	{r4, r5, r6, r7, pc}
      if(n <= nLin)
     ee8:	4294      	cmp	r4, r2
     eea:	d305      	bcc.n	ef8 <_ff_push_n+0x54>
        memcpy(ff_buf, app_buf, n*f->item_size);
     eec:	434a      	muls	r2, r1
     eee:	9901      	ldr	r1, [sp, #4]
     ef0:	4648      	mov	r0, r9
     ef2:	4b2a      	ldr	r3, [pc, #168]	; (f9c <_ff_push_n+0xf8>)
     ef4:	4798      	blx	r3
     ef6:	e7f2      	b.n	ede <_ff_push_n+0x3a>
        memcpy(ff_buf, app_buf, nLin_bytes);
     ef8:	4642      	mov	r2, r8
     efa:	9e01      	ldr	r6, [sp, #4]
     efc:	0031      	movs	r1, r6
     efe:	4648      	mov	r0, r9
     f00:	4c26      	ldr	r4, [pc, #152]	; (f9c <_ff_push_n+0xf8>)
     f02:	47a0      	blx	r4
        memcpy(f->buffer, ((uint8_t const*) app_buf) + nLin_bytes, nWrap_bytes);
     f04:	6838      	ldr	r0, [r7, #0]
     f06:	0031      	movs	r1, r6
     f08:	4441      	add	r1, r8
     f0a:	002a      	movs	r2, r5
     f0c:	47a0      	blx	r4
     f0e:	e7e6      	b.n	ede <_ff_push_n+0x3a>
      if(n <= nLin)
     f10:	4294      	cmp	r4, r2
     f12:	d21f      	bcs.n	f54 <_ff_push_n+0xb0>
        uint16_t nLin_4n_bytes = nLin_bytes & 0xFFFC;
     f14:	2303      	movs	r3, #3
     f16:	4644      	mov	r4, r8
     f18:	439c      	bics	r4, r3
        _ff_push_const_addr(ff_buf, app_buf, nLin_4n_bytes);
     f1a:	0022      	movs	r2, r4
     f1c:	9901      	ldr	r1, [sp, #4]
     f1e:	4648      	mov	r0, r9
     f20:	4b1f      	ldr	r3, [pc, #124]	; (fa0 <_ff_push_n+0xfc>)
     f22:	4798      	blx	r3
        ff_buf += nLin_4n_bytes;
     f24:	0023      	movs	r3, r4
     f26:	444b      	add	r3, r9
        uint8_t rem = nLin_bytes & 0x03;
     f28:	2103      	movs	r1, #3
     f2a:	4642      	mov	r2, r8
     f2c:	4011      	ands	r1, r2
        if (rem > 0)
     f2e:	d033      	beq.n	f98 <_ff_push_n+0xf4>
          uint8_t remrem = (uint8_t) tu_min16(nWrap_bytes, 4-rem);
     f30:	2204      	movs	r2, #4
     f32:	1a52      	subs	r2, r2, r1
     f34:	b292      	uxth	r2, r2
TU_ATTR_ALWAYS_INLINE static inline uint16_t tu_min16 (uint16_t x, uint16_t y) { return (x < y) ? x : y; }
     f36:	1c28      	adds	r0, r5, #0
     f38:	4295      	cmp	r5, r2
     f3a:	d900      	bls.n	f3e <_ff_push_n+0x9a>
     f3c:	1c10      	adds	r0, r2, #0
     f3e:	b284      	uxth	r4, r0
     f40:	b2e2      	uxtb	r2, r4
          nWrap_bytes -= remrem;
     f42:	20ff      	movs	r0, #255	; 0xff
     f44:	4020      	ands	r0, r4
     f46:	1a2d      	subs	r5, r5, r0
     f48:	b2ad      	uxth	r5, r5
          uint32_t tmp32 = *rx_fifo;
     f4a:	9801      	ldr	r0, [sp, #4]
     f4c:	6800      	ldr	r0, [r0, #0]
     f4e:	9003      	str	r0, [sp, #12]
          uint8_t * src_u8 = ((uint8_t *) &tmp32);
     f50:	ac03      	add	r4, sp, #12
          while(rem--) *ff_buf++ = *src_u8++;
     f52:	e00b      	b.n	f6c <_ff_push_n+0xc8>
        _ff_push_const_addr(ff_buf, app_buf, n*f->item_size);
     f54:	434a      	muls	r2, r1
     f56:	b292      	uxth	r2, r2
     f58:	9901      	ldr	r1, [sp, #4]
     f5a:	4648      	mov	r0, r9
     f5c:	4b10      	ldr	r3, [pc, #64]	; (fa0 <_ff_push_n+0xfc>)
     f5e:	4798      	blx	r3
     f60:	e7bd      	b.n	ede <_ff_push_n+0x3a>
          while(rem--) *ff_buf++ = *src_u8++;
     f62:	7821      	ldrb	r1, [r4, #0]
     f64:	7019      	strb	r1, [r3, #0]
     f66:	3401      	adds	r4, #1
     f68:	0001      	movs	r1, r0
     f6a:	3301      	adds	r3, #1
     f6c:	1e48      	subs	r0, r1, #1
     f6e:	b2c0      	uxtb	r0, r0
     f70:	2900      	cmp	r1, #0
     f72:	d1f6      	bne.n	f62 <_ff_push_n+0xbe>
          ff_buf = f->buffer;
     f74:	6838      	ldr	r0, [r7, #0]
          while(remrem--) *ff_buf++ = *src_u8++;
     f76:	e004      	b.n	f82 <_ff_push_n+0xde>
     f78:	7822      	ldrb	r2, [r4, #0]
     f7a:	7002      	strb	r2, [r0, #0]
     f7c:	3401      	adds	r4, #1
     f7e:	001a      	movs	r2, r3
     f80:	3001      	adds	r0, #1
     f82:	1e53      	subs	r3, r2, #1
     f84:	b2db      	uxtb	r3, r3
     f86:	2a00      	cmp	r2, #0
     f88:	d1f6      	bne.n	f78 <_ff_push_n+0xd4>
        if (nWrap_bytes > 0) _ff_push_const_addr(ff_buf, app_buf, nWrap_bytes);
     f8a:	2d00      	cmp	r5, #0
     f8c:	d0a7      	beq.n	ede <_ff_push_n+0x3a>
     f8e:	002a      	movs	r2, r5
     f90:	9901      	ldr	r1, [sp, #4]
     f92:	4b03      	ldr	r3, [pc, #12]	; (fa0 <_ff_push_n+0xfc>)
     f94:	4798      	blx	r3
}
     f96:	e7a2      	b.n	ede <_ff_push_n+0x3a>
          ff_buf = f->buffer; // wrap around to beginning
     f98:	6838      	ldr	r0, [r7, #0]
     f9a:	e7f6      	b.n	f8a <_ff_push_n+0xe6>
     f9c:	000031d9 	.word	0x000031d9
     fa0:	00000e65 	.word	0x00000e65

00000fa4 <_tu_fifo_write_n>:
{
     fa4:	b5f0      	push	{r4, r5, r6, r7, lr}
     fa6:	b085      	sub	sp, #20
     fa8:	0004      	movs	r4, r0
     faa:	9303      	str	r3, [sp, #12]
  if ( n == 0 ) return 0;
     fac:	2a00      	cmp	r2, #0
     fae:	d037      	beq.n	1020 <_tu_fifo_write_n+0x7c>
  uint16_t w = f->wr_idx, r = f->rd_idx;
     fb0:	89c7      	ldrh	r7, [r0, #14]
     fb2:	b2bf      	uxth	r7, r7
     fb4:	8a03      	ldrh	r3, [r0, #16]
     fb6:	b29b      	uxth	r3, r3
  if (!f->overwritable)
     fb8:	7a00      	ldrb	r0, [r0, #8]
     fba:	2800      	cmp	r0, #0
     fbc:	d124      	bne.n	1008 <_tu_fifo_write_n+0x64>
  return f->depth - _tu_fifo_count(f, wAbs, rAbs);
     fbe:	88a0      	ldrh	r0, [r4, #4]
  uint16_t cnt = wAbs-rAbs;
     fc0:	1afd      	subs	r5, r7, r3
     fc2:	b2ad      	uxth	r5, r5
  if (rAbs > wAbs) cnt -= f->non_used_index_space;
     fc4:	429f      	cmp	r7, r3
     fc6:	d202      	bcs.n	fce <_tu_fifo_write_n+0x2a>
     fc8:	8963      	ldrh	r3, [r4, #10]
     fca:	1aed      	subs	r5, r5, r3
     fcc:	b2ad      	uxth	r5, r5
  return f->depth - _tu_fifo_count(f, wAbs, rAbs);
     fce:	1b43      	subs	r3, r0, r5
     fd0:	b29b      	uxth	r3, r3
     fd2:	1c15      	adds	r5, r2, #0
     fd4:	429a      	cmp	r2, r3
     fd6:	d900      	bls.n	fda <_tu_fifo_write_n+0x36>
     fd8:	1c1d      	adds	r5, r3, #0
     fda:	b2ad      	uxth	r5, r5
  uint8_t const* buf8 = (uint8_t const*) data;
     fdc:	000e      	movs	r6, r1
  uint16_t wRel = get_relative_pointer(f, w);
     fde:	0039      	movs	r1, r7
     fe0:	0020      	movs	r0, r4
     fe2:	4b10      	ldr	r3, [pc, #64]	; (1024 <_tu_fifo_write_n+0x80>)
     fe4:	4798      	blx	r3
     fe6:	0003      	movs	r3, r0
  _ff_push_n(f, buf8, n, wRel, copy_mode);
     fe8:	9a03      	ldr	r2, [sp, #12]
     fea:	9200      	str	r2, [sp, #0]
     fec:	002a      	movs	r2, r5
     fee:	0031      	movs	r1, r6
     ff0:	0020      	movs	r0, r4
     ff2:	4e0d      	ldr	r6, [pc, #52]	; (1028 <_tu_fifo_write_n+0x84>)
     ff4:	47b0      	blx	r6
  f->wr_idx = advance_pointer(f, w, n);
     ff6:	002a      	movs	r2, r5
     ff8:	0039      	movs	r1, r7
     ffa:	0020      	movs	r0, r4
     ffc:	4b0b      	ldr	r3, [pc, #44]	; (102c <_tu_fifo_write_n+0x88>)
     ffe:	4798      	blx	r3
    1000:	81e0      	strh	r0, [r4, #14]
}
    1002:	0028      	movs	r0, r5
    1004:	b005      	add	sp, #20
    1006:	bdf0      	pop	{r4, r5, r6, r7, pc}
  else if (n >= f->depth)
    1008:	88a5      	ldrh	r5, [r4, #4]
    100a:	42aa      	cmp	r2, r5
    100c:	d305      	bcc.n	101a <_tu_fifo_write_n+0x76>
    buf8 = buf8 + (n - f->depth) * f->item_size;
    100e:	1b52      	subs	r2, r2, r5
    1010:	88e6      	ldrh	r6, [r4, #6]
    1012:	4356      	muls	r6, r2
    1014:	198e      	adds	r6, r1, r6
    w = r;
    1016:	001f      	movs	r7, r3
    1018:	e7e1      	b.n	fde <_tu_fifo_write_n+0x3a>
  uint8_t const* buf8 = (uint8_t const*) data;
    101a:	000e      	movs	r6, r1
    101c:	0015      	movs	r5, r2
    101e:	e7de      	b.n	fde <_tu_fifo_write_n+0x3a>
  if ( n == 0 ) return 0;
    1020:	0015      	movs	r5, r2
    1022:	e7ee      	b.n	1002 <_tu_fifo_write_n+0x5e>
    1024:	00000c09 	.word	0x00000c09
    1028:	00000ea5 	.word	0x00000ea5
    102c:	00000bd9 	.word	0x00000bd9

00001030 <tu_fifo_config>:
{
    1030:	b530      	push	{r4, r5, lr}
    1032:	ac03      	add	r4, sp, #12
    1034:	7825      	ldrb	r5, [r4, #0]
  if (depth > 0x8000) return false;               // Maximum depth is 2^15 items
    1036:	2480      	movs	r4, #128	; 0x80
    1038:	0224      	lsls	r4, r4, #8
    103a:	42a2      	cmp	r2, r4
    103c:	d80f      	bhi.n	105e <tu_fifo_config+0x2e>
  f->buffer = (uint8_t*) buffer;
    103e:	6001      	str	r1, [r0, #0]
  f->depth  = depth;
    1040:	8082      	strh	r2, [r0, #4]
  f->item_size = item_size;
    1042:	80c3      	strh	r3, [r0, #6]
  f->overwritable = overwritable;
    1044:	7205      	strb	r5, [r0, #8]
  f->max_pointer_idx = (uint16_t) (2*depth - 1);
    1046:	0052      	lsls	r2, r2, #1
    1048:	b292      	uxth	r2, r2
    104a:	3a01      	subs	r2, #1
    104c:	b292      	uxth	r2, r2
    104e:	8182      	strh	r2, [r0, #12]
  f->non_used_index_space = UINT16_MAX - f->max_pointer_idx;
    1050:	43d2      	mvns	r2, r2
    1052:	8142      	strh	r2, [r0, #10]
  f->rd_idx = f->wr_idx = 0;
    1054:	2300      	movs	r3, #0
    1056:	81c3      	strh	r3, [r0, #14]
    1058:	8203      	strh	r3, [r0, #16]
  return true;
    105a:	2001      	movs	r0, #1
}
    105c:	bd30      	pop	{r4, r5, pc}
  if (depth > 0x8000) return false;               // Maximum depth is 2^15 items
    105e:	2000      	movs	r0, #0
    1060:	e7fc      	b.n	105c <tu_fifo_config+0x2c>

00001062 <tu_fifo_count>:
    @returns Number of items in FIFO
 */
/******************************************************************************/
uint16_t tu_fifo_count(tu_fifo_t* f)
{
  return tu_min16(_tu_fifo_count(f, f->wr_idx, f->rd_idx), f->depth);
    1062:	89c1      	ldrh	r1, [r0, #14]
    1064:	b289      	uxth	r1, r1
    1066:	8a02      	ldrh	r2, [r0, #16]
    1068:	b292      	uxth	r2, r2
  uint16_t cnt = wAbs-rAbs;
    106a:	1a8b      	subs	r3, r1, r2
    106c:	b29b      	uxth	r3, r3
  if (rAbs > wAbs) cnt -= f->non_used_index_space;
    106e:	4291      	cmp	r1, r2
    1070:	d202      	bcs.n	1078 <tu_fifo_count+0x16>
    1072:	8942      	ldrh	r2, [r0, #10]
    1074:	1a9b      	subs	r3, r3, r2
    1076:	b29b      	uxth	r3, r3
  return tu_min16(_tu_fifo_count(f, f->wr_idx, f->rd_idx), f->depth);
    1078:	8882      	ldrh	r2, [r0, #4]
    107a:	1c10      	adds	r0, r2, #0
    107c:	429a      	cmp	r2, r3
    107e:	d900      	bls.n	1082 <tu_fifo_count+0x20>
    1080:	1c18      	adds	r0, r3, #0
    1082:	b280      	uxth	r0, r0
}
    1084:	4770      	bx	lr

00001086 <tu_fifo_empty>:
    @returns Number of items in FIFO
 */
/******************************************************************************/
bool tu_fifo_empty(tu_fifo_t* f)
{
  return _tu_fifo_empty(f->wr_idx, f->rd_idx);
    1086:	89c3      	ldrh	r3, [r0, #14]
    1088:	8a00      	ldrh	r0, [r0, #16]
  return wAbs == rAbs;
    108a:	1a18      	subs	r0, r3, r0
    108c:	4243      	negs	r3, r0
    108e:	4158      	adcs	r0, r3
    1090:	b2c0      	uxtb	r0, r0
}
    1092:	4770      	bx	lr

00001094 <tu_fifo_remaining>:

    @returns Number of items in FIFO
 */
/******************************************************************************/
uint16_t tu_fifo_remaining(tu_fifo_t* f)
{
    1094:	b510      	push	{r4, lr}
  return _tu_fifo_remaining(f, f->wr_idx, f->rd_idx);
    1096:	89c4      	ldrh	r4, [r0, #14]
    1098:	b2a4      	uxth	r4, r4
    109a:	8a01      	ldrh	r1, [r0, #16]
    109c:	b289      	uxth	r1, r1
  return f->depth - _tu_fifo_count(f, wAbs, rAbs);
    109e:	8882      	ldrh	r2, [r0, #4]
  uint16_t cnt = wAbs-rAbs;
    10a0:	1a63      	subs	r3, r4, r1
    10a2:	b29b      	uxth	r3, r3
  if (rAbs > wAbs) cnt -= f->non_used_index_space;
    10a4:	428c      	cmp	r4, r1
    10a6:	d202      	bcs.n	10ae <tu_fifo_remaining+0x1a>
    10a8:	8940      	ldrh	r0, [r0, #10]
    10aa:	1a1b      	subs	r3, r3, r0
    10ac:	b29b      	uxth	r3, r3
  return f->depth - _tu_fifo_count(f, wAbs, rAbs);
    10ae:	1ad0      	subs	r0, r2, r3
    10b0:	b280      	uxth	r0, r0
}
    10b2:	bd10      	pop	{r4, pc}

000010b4 <tu_fifo_read>:

    @returns TRUE if the queue is not empty
 */
/******************************************************************************/
bool tu_fifo_read(tu_fifo_t* f, void * buffer)
{
    10b4:	b570      	push	{r4, r5, r6, lr}
    10b6:	0004      	movs	r4, r0
  _ff_lock(f->mutex_rd);

  // Peek the data
  // f->rd_idx might get modified in case of an overflow so we can not use a local variable
  bool ret = _tu_fifo_peek(f, buffer, f->wr_idx, f->rd_idx);
    10b8:	89c2      	ldrh	r2, [r0, #14]
    10ba:	b292      	uxth	r2, r2
    10bc:	8a03      	ldrh	r3, [r0, #16]
    10be:	b29b      	uxth	r3, r3
    10c0:	4d05      	ldr	r5, [pc, #20]	; (10d8 <tu_fifo_read+0x24>)
    10c2:	47a8      	blx	r5
    10c4:	0005      	movs	r5, r0

  // Advance pointer
  f->rd_idx = advance_pointer(f, f->rd_idx, ret);
    10c6:	8a21      	ldrh	r1, [r4, #16]
    10c8:	b289      	uxth	r1, r1
    10ca:	b282      	uxth	r2, r0
    10cc:	0020      	movs	r0, r4
    10ce:	4b03      	ldr	r3, [pc, #12]	; (10dc <tu_fifo_read+0x28>)
    10d0:	4798      	blx	r3
    10d2:	8220      	strh	r0, [r4, #16]

  _ff_unlock(f->mutex_rd);
  return ret;
}
    10d4:	0028      	movs	r0, r5
    10d6:	bd70      	pop	{r4, r5, r6, pc}
    10d8:	00000c19 	.word	0x00000c19
    10dc:	00000bd9 	.word	0x00000bd9

000010e0 <tu_fifo_read_n>:

    @returns number of items read from the FIFO
 */
/******************************************************************************/
uint16_t tu_fifo_read_n(tu_fifo_t* f, void * buffer, uint16_t n)
{
    10e0:	b510      	push	{r4, lr}
  return _tu_fifo_read_n(f, buffer, n, TU_FIFO_COPY_INC);
    10e2:	2300      	movs	r3, #0
    10e4:	4c01      	ldr	r4, [pc, #4]	; (10ec <tu_fifo_read_n+0xc>)
    10e6:	47a0      	blx	r4
}
    10e8:	bd10      	pop	{r4, pc}
    10ea:	46c0      	nop			; (mov r8, r8)
    10ec:	00000e2d 	.word	0x00000e2d

000010f0 <tu_fifo_write>:
    @returns TRUE if the data was written to the FIFO (overwrittable
             FIFO will always return TRUE)
 */
/******************************************************************************/
bool tu_fifo_write(tu_fifo_t* f, const void * data)
{
    10f0:	b570      	push	{r4, r5, r6, lr}
    10f2:	0004      	movs	r4, r0
    10f4:	000e      	movs	r6, r1
  _ff_lock(f->mutex_wr);

  bool ret;
  uint16_t const w = f->wr_idx;
    10f6:	89c5      	ldrh	r5, [r0, #14]
    10f8:	b2ad      	uxth	r5, r5

  if ( _tu_fifo_full(f, w, f->rd_idx) && !f->overwritable )
    10fa:	8a02      	ldrh	r2, [r0, #16]
    10fc:	b292      	uxth	r2, r2
  uint16_t cnt = wAbs-rAbs;
    10fe:	1aab      	subs	r3, r5, r2
    1100:	b29b      	uxth	r3, r3
  if (rAbs > wAbs) cnt -= f->non_used_index_space;
    1102:	4295      	cmp	r5, r2
    1104:	d202      	bcs.n	110c <tu_fifo_write+0x1c>
    1106:	8942      	ldrh	r2, [r0, #10]
    1108:	1a9b      	subs	r3, r3, r2
    110a:	b29b      	uxth	r3, r3
  return (_tu_fifo_count(f, wAbs, rAbs) == f->depth);
    110c:	88a2      	ldrh	r2, [r4, #4]
  if ( _tu_fifo_full(f, w, f->rd_idx) && !f->overwritable )
    110e:	429a      	cmp	r2, r3
    1110:	d013      	beq.n	113a <tu_fifo_write+0x4a>
  {
    ret = false;
  }else
  {
    uint16_t wRel = get_relative_pointer(f, w);
    1112:	0029      	movs	r1, r5
    1114:	0020      	movs	r0, r4
    1116:	4b0b      	ldr	r3, [pc, #44]	; (1144 <tu_fifo_write+0x54>)
    1118:	4798      	blx	r3
  memcpy(f->buffer + (rel * f->item_size), app_buf, f->item_size);
    111a:	88e2      	ldrh	r2, [r4, #6]
    111c:	4350      	muls	r0, r2
    111e:	6823      	ldr	r3, [r4, #0]
    1120:	469c      	mov	ip, r3
    1122:	4460      	add	r0, ip
    1124:	0031      	movs	r1, r6
    1126:	4b08      	ldr	r3, [pc, #32]	; (1148 <tu_fifo_write+0x58>)
    1128:	4798      	blx	r3

    // Write data
    _ff_push(f, data, wRel);

    // Advance pointer
    f->wr_idx = advance_pointer(f, w, 1);
    112a:	2201      	movs	r2, #1
    112c:	0029      	movs	r1, r5
    112e:	0020      	movs	r0, r4
    1130:	4b06      	ldr	r3, [pc, #24]	; (114c <tu_fifo_write+0x5c>)
    1132:	4798      	blx	r3
    1134:	81e0      	strh	r0, [r4, #14]

    ret = true;
    1136:	2001      	movs	r0, #1
  }

  _ff_unlock(f->mutex_wr);

  return ret;
}
    1138:	bd70      	pop	{r4, r5, r6, pc}
  if ( _tu_fifo_full(f, w, f->rd_idx) && !f->overwritable )
    113a:	7a20      	ldrb	r0, [r4, #8]
    113c:	2800      	cmp	r0, #0
    113e:	d1e8      	bne.n	1112 <tu_fifo_write+0x22>
    1140:	e7fa      	b.n	1138 <tu_fifo_write+0x48>
    1142:	46c0      	nop			; (mov r8, r8)
    1144:	00000c09 	.word	0x00000c09
    1148:	000031d9 	.word	0x000031d9
    114c:	00000bd9 	.word	0x00000bd9

00001150 <tu_fifo_write_n>:
                Number of element
    @return Number of written elements
 */
/******************************************************************************/
uint16_t tu_fifo_write_n(tu_fifo_t* f, const void * data, uint16_t n)
{
    1150:	b510      	push	{r4, lr}
  return _tu_fifo_write_n(f, data, n, TU_FIFO_COPY_INC);
    1152:	2300      	movs	r3, #0
    1154:	4c01      	ldr	r4, [pc, #4]	; (115c <tu_fifo_write_n+0xc>)
    1156:	47a0      	blx	r4
}
    1158:	bd10      	pop	{r4, pc}
    115a:	46c0      	nop			; (mov r8, r8)
    115c:	00000fa5 	.word	0x00000fa5

00001160 <tu_fifo_clear>:
bool tu_fifo_clear(tu_fifo_t *f)
{
  _ff_lock(f->mutex_wr);
  _ff_lock(f->mutex_rd);

  f->rd_idx = f->wr_idx = 0;
    1160:	2300      	movs	r3, #0
    1162:	81c3      	strh	r3, [r0, #14]
    1164:	8203      	strh	r3, [r0, #16]
  f->max_pointer_idx = (uint16_t) (2*f->depth-1);
    1166:	8883      	ldrh	r3, [r0, #4]
    1168:	005b      	lsls	r3, r3, #1
    116a:	b29b      	uxth	r3, r3
    116c:	3b01      	subs	r3, #1
    116e:	b29b      	uxth	r3, r3
    1170:	8183      	strh	r3, [r0, #12]
  f->non_used_index_space = UINT16_MAX - f->max_pointer_idx;
    1172:	43db      	mvns	r3, r3
    1174:	8143      	strh	r3, [r0, #10]

  _ff_unlock(f->mutex_wr);
  _ff_unlock(f->mutex_rd);
  return true;
}
    1176:	2001      	movs	r0, #1
    1178:	4770      	bx	lr

0000117a <tu_fifo_set_overwritable>:
bool tu_fifo_set_overwritable(tu_fifo_t *f, bool overwritable)
{
  _ff_lock(f->mutex_wr);
  _ff_lock(f->mutex_rd);

  f->overwritable = overwritable;
    117a:	7201      	strb	r1, [r0, #8]

  _ff_unlock(f->mutex_wr);
  _ff_unlock(f->mutex_rd);

  return true;
}
    117c:	2001      	movs	r0, #1
    117e:	4770      	bx	lr

00001180 <configuration_reset>:

  return true;
}

static void configuration_reset(uint8_t rhport)
{
    1180:	b570      	push	{r4, r5, r6, lr}
    1182:	0005      	movs	r5, r0
  for ( uint8_t i = 0; i < TOTAL_DRIVER_COUNT; i++ )
    1184:	2400      	movs	r4, #0
    1186:	e00f      	b.n	11a8 <configuration_reset+0x28>
    drvid -= _app_driver_count;
    1188:	1ae3      	subs	r3, r4, r3
    118a:	b2db      	uxtb	r3, r3
  if (drvid < BUILTIN_DRIVER_COUNT) return &_usbd_driver[drvid];
    118c:	2b00      	cmp	r3, #0
    118e:	d11e      	bne.n	11ce <configuration_reset+0x4e>
    1190:	005a      	lsls	r2, r3, #1
    1192:	18d3      	adds	r3, r2, r3
    1194:	00da      	lsls	r2, r3, #3
    1196:	4b18      	ldr	r3, [pc, #96]	; (11f8 <configuration_reset+0x78>)
    1198:	189b      	adds	r3, r3, r2
  {
    usbd_class_driver_t const * driver = get_driver(i);
    TU_ASSERT(driver, );
    119a:	2b00      	cmp	r3, #0
    119c:	d02a      	beq.n	11f4 <configuration_reset+0x74>
    driver->reset(rhport);
    119e:	685b      	ldr	r3, [r3, #4]
    11a0:	0028      	movs	r0, r5
    11a2:	4798      	blx	r3
  for ( uint8_t i = 0; i < TOTAL_DRIVER_COUNT; i++ )
    11a4:	3401      	adds	r4, #1
    11a6:	b2e4      	uxtb	r4, r4
    11a8:	4b14      	ldr	r3, [pc, #80]	; (11fc <configuration_reset+0x7c>)
    11aa:	791b      	ldrb	r3, [r3, #4]
    11ac:	1c5a      	adds	r2, r3, #1
    11ae:	4294      	cmp	r4, r2
    11b0:	da0f      	bge.n	11d2 <configuration_reset+0x52>
  if ( usbd_app_driver_get_cb )
    11b2:	4a13      	ldr	r2, [pc, #76]	; (1200 <configuration_reset+0x80>)
    11b4:	2a00      	cmp	r2, #0
    11b6:	d008      	beq.n	11ca <configuration_reset+0x4a>
    if ( drvid < _app_driver_count ) return &_app_driver[drvid];
    11b8:	429c      	cmp	r4, r3
    11ba:	d2e5      	bcs.n	1188 <configuration_reset+0x8>
    11bc:	0062      	lsls	r2, r4, #1
    11be:	1912      	adds	r2, r2, r4
    11c0:	00d1      	lsls	r1, r2, #3
    11c2:	4b0e      	ldr	r3, [pc, #56]	; (11fc <configuration_reset+0x7c>)
    11c4:	681b      	ldr	r3, [r3, #0]
    11c6:	185b      	adds	r3, r3, r1
    11c8:	e7e7      	b.n	119a <configuration_reset+0x1a>
  if ( usbd_app_driver_get_cb )
    11ca:	0023      	movs	r3, r4
    11cc:	e7de      	b.n	118c <configuration_reset+0xc>
  return NULL;
    11ce:	2300      	movs	r3, #0
    11d0:	e7e3      	b.n	119a <configuration_reset+0x1a>
  }

  tu_varclr(&_usbd_dev);
    11d2:	4c0a      	ldr	r4, [pc, #40]	; (11fc <configuration_reset+0x7c>)
    11d4:	0020      	movs	r0, r4
    11d6:	3008      	adds	r0, #8
    11d8:	2233      	movs	r2, #51	; 0x33
    11da:	2100      	movs	r1, #0
    11dc:	4d09      	ldr	r5, [pc, #36]	; (1204 <configuration_reset+0x84>)
    11de:	47a8      	blx	r5
  memset(_usbd_dev.itf2drv, DRVID_INVALID, sizeof(_usbd_dev.itf2drv)); // invalid mapping
    11e0:	0020      	movs	r0, r4
    11e2:	300b      	adds	r0, #11
    11e4:	2210      	movs	r2, #16
    11e6:	21ff      	movs	r1, #255	; 0xff
    11e8:	47a8      	blx	r5
  memset(_usbd_dev.ep2drv , DRVID_INVALID, sizeof(_usbd_dev.ep2drv )); // invalid mapping
    11ea:	0020      	movs	r0, r4
    11ec:	301b      	adds	r0, #27
    11ee:	2210      	movs	r2, #16
    11f0:	21ff      	movs	r1, #255	; 0xff
    11f2:	47a8      	blx	r5
}
    11f4:	bd70      	pop	{r4, r5, r6, pc}
    11f6:	46c0      	nop			; (mov r8, r8)
    11f8:	0000367c 	.word	0x0000367c
    11fc:	200007e4 	.word	0x200007e4
    1200:	00000000 	.word	0x00000000
    1204:	0000325d 	.word	0x0000325d

00001208 <usbd_reset>:

static void usbd_reset(uint8_t rhport)
{
    1208:	b510      	push	{r4, lr}
  configuration_reset(rhport);
    120a:	4b02      	ldr	r3, [pc, #8]	; (1214 <usbd_reset+0xc>)
    120c:	4798      	blx	r3
  usbd_control_reset();
    120e:	4b02      	ldr	r3, [pc, #8]	; (1218 <usbd_reset+0x10>)
    1210:	4798      	blx	r3
}
    1212:	bd10      	pop	{r4, pc}
    1214:	00001181 	.word	0x00001181
    1218:	0000206d 	.word	0x0000206d

0000121c <invoke_class_control>:
// Control Request Parser & Handling
//--------------------------------------------------------------------+

// Helper to invoke class driver control request handler
static bool invoke_class_control(uint8_t rhport, usbd_class_driver_t const * driver, tusb_control_request_t const * request)
{
    121c:	b570      	push	{r4, r5, r6, lr}
    121e:	0005      	movs	r5, r0
    1220:	000c      	movs	r4, r1
    1222:	0016      	movs	r6, r2
  usbd_control_set_complete_callback(driver->control_xfer_cb);
    1224:	68c8      	ldr	r0, [r1, #12]
    1226:	4b04      	ldr	r3, [pc, #16]	; (1238 <invoke_class_control+0x1c>)
    1228:	4798      	blx	r3
  TU_LOG(USBD_DBG, "  %s control request\r\n", driver->name);
  return driver->control_xfer_cb(rhport, CONTROL_STAGE_SETUP, request);
    122a:	68e3      	ldr	r3, [r4, #12]
    122c:	0032      	movs	r2, r6
    122e:	2101      	movs	r1, #1
    1230:	0028      	movs	r0, r5
    1232:	4798      	blx	r3
}
    1234:	bd70      	pop	{r4, r5, r6, pc}
    1236:	46c0      	nop			; (mov r8, r8)
    1238:	00002085 	.word	0x00002085

0000123c <process_set_config>:
}

// Process Set Configure Request
// This function parse configuration descriptor & open drivers accordingly
static bool process_set_config(uint8_t rhport, uint8_t cfg_num)
{
    123c:	b5f0      	push	{r4, r5, r6, r7, lr}
    123e:	46de      	mov	lr, fp
    1240:	4657      	mov	r7, sl
    1242:	b580      	push	{r7, lr}
    1244:	b085      	sub	sp, #20
    1246:	9002      	str	r0, [sp, #8]
  // index is cfg_num-1
  tusb_desc_configuration_t const * desc_cfg = (tusb_desc_configuration_t const *) tud_descriptor_configuration_cb(cfg_num-1);
    1248:	3901      	subs	r1, #1
    124a:	b2c8      	uxtb	r0, r1
    124c:	4b56      	ldr	r3, [pc, #344]	; (13a8 <process_set_config+0x16c>)
    124e:	4798      	blx	r3
  TU_ASSERT(desc_cfg != NULL && desc_cfg->bDescriptorType == TUSB_DESC_CONFIGURATION);
    1250:	2800      	cmp	r0, #0
    1252:	d100      	bne.n	1256 <process_set_config+0x1a>
    1254:	e09d      	b.n	1392 <process_set_config+0x156>
    1256:	7843      	ldrb	r3, [r0, #1]
    1258:	2b02      	cmp	r3, #2
    125a:	d005      	beq.n	1268 <process_set_config+0x2c>
    125c:	2000      	movs	r0, #0

  // invoke callback
  if (tud_mount_cb) tud_mount_cb();

  return true;
}
    125e:	b005      	add	sp, #20
    1260:	bc0c      	pop	{r2, r3}
    1262:	4692      	mov	sl, r2
    1264:	469b      	mov	fp, r3
    1266:	bdf0      	pop	{r4, r5, r6, r7, pc}
  _usbd_dev.remote_wakeup_support = (desc_cfg->bmAttributes & TUSB_DESC_CONFIG_ATT_REMOTE_WAKEUP) ? 1u : 0u;
    1268:	79c1      	ldrb	r1, [r0, #7]
    126a:	068b      	lsls	r3, r1, #26
    126c:	d529      	bpl.n	12c2 <process_set_config+0x86>
    126e:	2201      	movs	r2, #1
    1270:	4c4e      	ldr	r4, [pc, #312]	; (13ac <process_set_config+0x170>)
    1272:	0112      	lsls	r2, r2, #4
    1274:	7a23      	ldrb	r3, [r4, #8]
    1276:	2510      	movs	r5, #16
    1278:	43ab      	bics	r3, r5
    127a:	4313      	orrs	r3, r2
    127c:	7223      	strb	r3, [r4, #8]
  _usbd_dev.self_powered          = (desc_cfg->bmAttributes & TUSB_DESC_CONFIG_ATT_SELF_POWERED ) ? 1u : 0u;
    127e:	064b      	lsls	r3, r1, #25
    1280:	d521      	bpl.n	12c6 <process_set_config+0x8a>
    1282:	2201      	movs	r2, #1
    1284:	4949      	ldr	r1, [pc, #292]	; (13ac <process_set_config+0x170>)
    1286:	0152      	lsls	r2, r2, #5
    1288:	7a0b      	ldrb	r3, [r1, #8]
    128a:	2420      	movs	r4, #32
    128c:	43a3      	bics	r3, r4
    128e:	4313      	orrs	r3, r2
    1290:	720b      	strb	r3, [r1, #8]
  uint8_t const * p_desc   = ((uint8_t const*) desc_cfg) + sizeof(tusb_desc_configuration_t);
    1292:	0006      	movs	r6, r0
    1294:	3609      	adds	r6, #9
  uint8_t const * desc_end = ((uint8_t const*) desc_cfg) + tu_le16toh(desc_cfg->wTotalLength);
    1296:	7882      	ldrb	r2, [r0, #2]
    1298:	78c3      	ldrb	r3, [r0, #3]
    129a:	021b      	lsls	r3, r3, #8
    129c:	4313      	orrs	r3, r2
    129e:	4682      	mov	sl, r0
    12a0:	449a      	add	sl, r3
  while( p_desc < desc_end )
    12a2:	4556      	cmp	r6, sl
    12a4:	d26f      	bcs.n	1386 <process_set_config+0x14a>
  return ((uint8_t const*) desc)[DESC_OFFSET_TYPE];
    12a6:	7873      	ldrb	r3, [r6, #1]
    if ( TUSB_DESC_INTERFACE_ASSOCIATION == tu_desc_type(p_desc) )
    12a8:	2b0b      	cmp	r3, #11
    12aa:	d00e      	beq.n	12ca <process_set_config+0x8e>
    uint8_t assoc_itf_count = 1;
    12ac:	2301      	movs	r3, #1
    12ae:	469b      	mov	fp, r3
    12b0:	7873      	ldrb	r3, [r6, #1]
    TU_ASSERT( TUSB_DESC_INTERFACE == tu_desc_type(p_desc) );
    12b2:	2b04      	cmp	r3, #4
    12b4:	d16f      	bne.n	1396 <process_set_config+0x15a>
    uint16_t const remaining_len = (uint16_t) (desc_end-p_desc);
    12b6:	4653      	mov	r3, sl
    12b8:	1b9d      	subs	r5, r3, r6
    12ba:	b2ab      	uxth	r3, r5
    12bc:	9301      	str	r3, [sp, #4]
    for (drv_id = 0; drv_id < TOTAL_DRIVER_COUNT; drv_id++)
    12be:	2400      	movs	r4, #0
    12c0:	e020      	b.n	1304 <process_set_config+0xc8>
  _usbd_dev.remote_wakeup_support = (desc_cfg->bmAttributes & TUSB_DESC_CONFIG_ATT_REMOTE_WAKEUP) ? 1u : 0u;
    12c2:	2200      	movs	r2, #0
    12c4:	e7d4      	b.n	1270 <process_set_config+0x34>
  _usbd_dev.self_powered          = (desc_cfg->bmAttributes & TUSB_DESC_CONFIG_ATT_SELF_POWERED ) ? 1u : 0u;
    12c6:	2200      	movs	r2, #0
    12c8:	e7dc      	b.n	1284 <process_set_config+0x48>
      assoc_itf_count = desc_iad->bInterfaceCount;
    12ca:	78f3      	ldrb	r3, [r6, #3]
    12cc:	469b      	mov	fp, r3
  return desc8 + desc8[DESC_OFFSET_LEN];
    12ce:	7833      	ldrb	r3, [r6, #0]
    12d0:	18f6      	adds	r6, r6, r3
    12d2:	e7ed      	b.n	12b0 <process_set_config+0x74>
    drvid -= _app_driver_count;
    12d4:	1ae3      	subs	r3, r4, r3
    12d6:	b2db      	uxtb	r3, r3
  if (drvid < BUILTIN_DRIVER_COUNT) return &_usbd_driver[drvid];
    12d8:	2b00      	cmp	r3, #0
    12da:	d127      	bne.n	132c <process_set_config+0xf0>
    12dc:	005a      	lsls	r2, r3, #1
    12de:	18d3      	adds	r3, r2, r3
    12e0:	00dd      	lsls	r5, r3, #3
    12e2:	4b33      	ldr	r3, [pc, #204]	; (13b0 <process_set_config+0x174>)
    12e4:	195d      	adds	r5, r3, r5
      TU_ASSERT(driver);
    12e6:	2d00      	cmp	r5, #0
    12e8:	d057      	beq.n	139a <process_set_config+0x15e>
      uint16_t const drv_len = driver->open(rhport, desc_itf, remaining_len);
    12ea:	9a01      	ldr	r2, [sp, #4]
    12ec:	0031      	movs	r1, r6
    12ee:	9802      	ldr	r0, [sp, #8]
    12f0:	68af      	ldr	r7, [r5, #8]
    12f2:	47b8      	blx	r7
    12f4:	0007      	movs	r7, r0
      if ( (sizeof(tusb_desc_interface_t) <= drv_len)  && (drv_len <= remaining_len) )
    12f6:	2808      	cmp	r0, #8
    12f8:	d902      	bls.n	1300 <process_set_config+0xc4>
    12fa:	9b01      	ldr	r3, [sp, #4]
    12fc:	4283      	cmp	r3, r0
    12fe:	d217      	bcs.n	1330 <process_set_config+0xf4>
    for (drv_id = 0; drv_id < TOTAL_DRIVER_COUNT; drv_id++)
    1300:	3401      	adds	r4, #1
    1302:	b2e4      	uxtb	r4, r4
    1304:	9403      	str	r4, [sp, #12]
    1306:	4b29      	ldr	r3, [pc, #164]	; (13ac <process_set_config+0x170>)
    1308:	791b      	ldrb	r3, [r3, #4]
    130a:	1c5a      	adds	r2, r3, #1
    130c:	4294      	cmp	r4, r2
    130e:	da32      	bge.n	1376 <process_set_config+0x13a>
  if ( usbd_app_driver_get_cb )
    1310:	4a28      	ldr	r2, [pc, #160]	; (13b4 <process_set_config+0x178>)
    1312:	2a00      	cmp	r2, #0
    1314:	d008      	beq.n	1328 <process_set_config+0xec>
    if ( drvid < _app_driver_count ) return &_app_driver[drvid];
    1316:	429c      	cmp	r4, r3
    1318:	d2dc      	bcs.n	12d4 <process_set_config+0x98>
    131a:	0063      	lsls	r3, r4, #1
    131c:	191b      	adds	r3, r3, r4
    131e:	00dd      	lsls	r5, r3, #3
    1320:	4b22      	ldr	r3, [pc, #136]	; (13ac <process_set_config+0x170>)
    1322:	681b      	ldr	r3, [r3, #0]
    1324:	195d      	adds	r5, r3, r5
    1326:	e7de      	b.n	12e6 <process_set_config+0xaa>
  if ( usbd_app_driver_get_cb )
    1328:	0023      	movs	r3, r4
    132a:	e7d5      	b.n	12d8 <process_set_config+0x9c>
  return NULL;
    132c:	2500      	movs	r5, #0
    132e:	e7da      	b.n	12e6 <process_set_config+0xaa>
        if ( assoc_itf_count == 1)
    1330:	465b      	mov	r3, fp
    1332:	2b01      	cmp	r3, #1
    1334:	d010      	beq.n	1358 <process_set_config+0x11c>
        for(uint8_t i=0; i<assoc_itf_count; i++)
    1336:	2200      	movs	r2, #0
    1338:	4593      	cmp	fp, r2
    133a:	d914      	bls.n	1366 <process_set_config+0x12a>
          uint8_t const itf_num = desc_itf->bInterfaceNumber+i;
    133c:	78b3      	ldrb	r3, [r6, #2]
    133e:	18d3      	adds	r3, r2, r3
    1340:	b2db      	uxtb	r3, r3
          TU_ASSERT(DRVID_INVALID == _usbd_dev.itf2drv[itf_num]);
    1342:	491a      	ldr	r1, [pc, #104]	; (13ac <process_set_config+0x170>)
    1344:	18c9      	adds	r1, r1, r3
    1346:	7ac9      	ldrb	r1, [r1, #11]
    1348:	29ff      	cmp	r1, #255	; 0xff
    134a:	d128      	bne.n	139e <process_set_config+0x162>
          _usbd_dev.itf2drv[itf_num] = drv_id;
    134c:	4917      	ldr	r1, [pc, #92]	; (13ac <process_set_config+0x170>)
    134e:	18cb      	adds	r3, r1, r3
    1350:	72dc      	strb	r4, [r3, #11]
        for(uint8_t i=0; i<assoc_itf_count; i++)
    1352:	3201      	adds	r2, #1
    1354:	b2d2      	uxtb	r2, r2
    1356:	e7ef      	b.n	1338 <process_set_config+0xfc>
          if ( driver->open == cdcd_open ) assoc_itf_count = 2;
    1358:	68aa      	ldr	r2, [r5, #8]
    135a:	4b17      	ldr	r3, [pc, #92]	; (13b8 <process_set_config+0x17c>)
    135c:	429a      	cmp	r2, r3
    135e:	d1ea      	bne.n	1336 <process_set_config+0xfa>
    1360:	2302      	movs	r3, #2
    1362:	469b      	mov	fp, r3
    1364:	e7e7      	b.n	1336 <process_set_config+0xfa>
        tu_edpt_bind_driver(_usbd_dev.ep2drv, desc_itf, drv_len, drv_id);
    1366:	4811      	ldr	r0, [pc, #68]	; (13ac <process_set_config+0x170>)
    1368:	301b      	adds	r0, #27
    136a:	0023      	movs	r3, r4
    136c:	003a      	movs	r2, r7
    136e:	0031      	movs	r1, r6
    1370:	4c12      	ldr	r4, [pc, #72]	; (13bc <process_set_config+0x180>)
    1372:	47a0      	blx	r4
        p_desc += drv_len;
    1374:	19f6      	adds	r6, r6, r7
    TU_ASSERT(drv_id < TOTAL_DRIVER_COUNT);
    1376:	4b0d      	ldr	r3, [pc, #52]	; (13ac <process_set_config+0x170>)
    1378:	791b      	ldrb	r3, [r3, #4]
    137a:	3301      	adds	r3, #1
    137c:	9a03      	ldr	r2, [sp, #12]
    137e:	429a      	cmp	r2, r3
    1380:	db8f      	blt.n	12a2 <process_set_config+0x66>
    1382:	2000      	movs	r0, #0
    1384:	e76b      	b.n	125e <process_set_config+0x22>
  if (tud_mount_cb) tud_mount_cb();
    1386:	4b0e      	ldr	r3, [pc, #56]	; (13c0 <process_set_config+0x184>)
    1388:	2b00      	cmp	r3, #0
    138a:	d00a      	beq.n	13a2 <process_set_config+0x166>
    138c:	4798      	blx	r3
  return true;
    138e:	2001      	movs	r0, #1
    1390:	e765      	b.n	125e <process_set_config+0x22>
  TU_ASSERT(desc_cfg != NULL && desc_cfg->bDescriptorType == TUSB_DESC_CONFIGURATION);
    1392:	2000      	movs	r0, #0
    1394:	e763      	b.n	125e <process_set_config+0x22>
    TU_ASSERT( TUSB_DESC_INTERFACE == tu_desc_type(p_desc) );
    1396:	2000      	movs	r0, #0
    1398:	e761      	b.n	125e <process_set_config+0x22>
      TU_ASSERT(driver);
    139a:	2000      	movs	r0, #0
    139c:	e75f      	b.n	125e <process_set_config+0x22>
          TU_ASSERT(DRVID_INVALID == _usbd_dev.itf2drv[itf_num]);
    139e:	2000      	movs	r0, #0
    13a0:	e75d      	b.n	125e <process_set_config+0x22>
  return true;
    13a2:	2001      	movs	r0, #1
    13a4:	e75b      	b.n	125e <process_set_config+0x22>
    13a6:	46c0      	nop			; (mov r8, r8)
    13a8:	00002f95 	.word	0x00002f95
    13ac:	200007e4 	.word	0x200007e4
    13b0:	0000367c 	.word	0x0000367c
    13b4:	00000000 	.word	0x00000000
    13b8:	00000889 	.word	0x00000889
    13bc:	00002f65 	.word	0x00002f65
    13c0:	00000000 	.word	0x00000000

000013c4 <process_get_descriptor>:

// return descriptor's buffer and update desc_len
static bool process_get_descriptor(uint8_t rhport, tusb_control_request_t const * p_request)
{
    13c4:	b570      	push	{r4, r5, r6, lr}
    13c6:	0004      	movs	r4, r0
    13c8:	000d      	movs	r5, r1
  tusb_desc_type_t const desc_type = (tusb_desc_type_t) tu_u16_high(p_request->wValue);
    13ca:	788b      	ldrb	r3, [r1, #2]
    13cc:	78c8      	ldrb	r0, [r1, #3]
    13ce:	0200      	lsls	r0, r0, #8
    13d0:	4318      	orrs	r0, r3
TU_ATTR_ALWAYS_INLINE static inline uint8_t tu_u16_high(uint16_t ui16) { return TU_U16_HIGH(ui16); }
    13d2:	0a02      	lsrs	r2, r0, #8
TU_ATTR_ALWAYS_INLINE static inline uint8_t tu_u16_low (uint16_t ui16) { return TU_U16_LOW(ui16); }
    13d4:	b2c0      	uxtb	r0, r0
  uint8_t const desc_index = tu_u16_low( p_request->wValue );

  switch(desc_type)
    13d6:	2a0f      	cmp	r2, #15
    13d8:	d851      	bhi.n	147e <process_get_descriptor+0xba>
    13da:	0093      	lsls	r3, r2, #2
    13dc:	492e      	ldr	r1, [pc, #184]	; (1498 <process_get_descriptor+0xd4>)
    13de:	58cb      	ldr	r3, [r1, r3]
    13e0:	469f      	mov	pc, r3
  {
    case TUSB_DESC_DEVICE:
    {
      TU_LOG(USBD_DBG, " Device\r\n");

      void* desc_device = (void*) (uintptr_t) tud_descriptor_device_cb();
    13e2:	4b2e      	ldr	r3, [pc, #184]	; (149c <process_get_descriptor+0xd8>)
    13e4:	4798      	blx	r3
    13e6:	0002      	movs	r2, r0
        mod_request.wLength = CFG_TUD_ENDPOINT0_SIZE;

        return tud_control_xfer(rhport, &mod_request, desc_device, CFG_TUD_ENDPOINT0_SIZE);
      }else
      {
        return tud_control_xfer(rhport, p_request, desc_device, sizeof(tusb_desc_device_t));
    13e8:	2312      	movs	r3, #18
    13ea:	0029      	movs	r1, r5
    13ec:	0020      	movs	r0, r4
    13ee:	4c2c      	ldr	r4, [pc, #176]	; (14a0 <process_get_descriptor+0xdc>)
    13f0:	47a0      	blx	r4
    }
    // break; // unreachable

    default: return false;
  }
}
    13f2:	bd70      	pop	{r4, r5, r6, pc}
      if (!tud_descriptor_bos_cb) return false;
    13f4:	4b2b      	ldr	r3, [pc, #172]	; (14a4 <process_get_descriptor+0xe0>)
    13f6:	2b00      	cmp	r3, #0
    13f8:	d043      	beq.n	1482 <process_get_descriptor+0xbe>
      uintptr_t desc_bos = (uintptr_t) tud_descriptor_bos_cb();
    13fa:	4798      	blx	r3
      TU_ASSERT(desc_bos);
    13fc:	2800      	cmp	r0, #0
    13fe:	d101      	bne.n	1404 <process_get_descriptor+0x40>
    1400:	2000      	movs	r0, #0
    1402:	e7f6      	b.n	13f2 <process_get_descriptor+0x2e>
}

TU_ATTR_ALWAYS_INLINE static inline uint16_t tu_unaligned_read16(const void* mem)
{
  tu_unaligned_uint16_t const* ua16 = (tu_unaligned_uint16_t const*) mem;
  return ua16->val;
    1404:	7882      	ldrb	r2, [r0, #2]
    1406:	78c3      	ldrb	r3, [r0, #3]
    1408:	021b      	lsls	r3, r3, #8
    140a:	4313      	orrs	r3, r2
      return tud_control_xfer(rhport, p_request, (void*) desc_bos, total_len);
    140c:	0002      	movs	r2, r0
    140e:	0029      	movs	r1, r5
    1410:	0020      	movs	r0, r4
    1412:	4c23      	ldr	r4, [pc, #140]	; (14a0 <process_get_descriptor+0xdc>)
    1414:	47a0      	blx	r4
    1416:	e7ec      	b.n	13f2 <process_get_descriptor+0x2e>
      if ( desc_type == TUSB_DESC_CONFIGURATION )
    1418:	2a02      	cmp	r2, #2
    141a:	d007      	beq.n	142c <process_get_descriptor+0x68>
        TU_VERIFY( tud_descriptor_other_speed_configuration_cb );
    141c:	4b22      	ldr	r3, [pc, #136]	; (14a8 <process_get_descriptor+0xe4>)
    141e:	2b00      	cmp	r3, #0
    1420:	d031      	beq.n	1486 <process_get_descriptor+0xc2>
        desc_config = (uintptr_t) tud_descriptor_other_speed_configuration_cb(desc_index);
    1422:	4798      	blx	r3
      TU_ASSERT(desc_config);
    1424:	2800      	cmp	r0, #0
    1426:	d104      	bne.n	1432 <process_get_descriptor+0x6e>
    1428:	2000      	movs	r0, #0
    142a:	e7e2      	b.n	13f2 <process_get_descriptor+0x2e>
        desc_config = (uintptr_t) tud_descriptor_configuration_cb(desc_index);
    142c:	4b1f      	ldr	r3, [pc, #124]	; (14ac <process_get_descriptor+0xe8>)
    142e:	4798      	blx	r3
    1430:	e7f8      	b.n	1424 <process_get_descriptor+0x60>
    1432:	7882      	ldrb	r2, [r0, #2]
    1434:	78c3      	ldrb	r3, [r0, #3]
    1436:	021b      	lsls	r3, r3, #8
    1438:	4313      	orrs	r3, r2
      return tud_control_xfer(rhport, p_request, (void*) desc_config, total_len);
    143a:	0002      	movs	r2, r0
    143c:	0029      	movs	r1, r5
    143e:	0020      	movs	r0, r4
    1440:	4c17      	ldr	r4, [pc, #92]	; (14a0 <process_get_descriptor+0xdc>)
    1442:	47a0      	blx	r4
    1444:	e7d5      	b.n	13f2 <process_get_descriptor+0x2e>
      uint8_t const* desc_str = (uint8_t const*) tud_descriptor_string_cb(desc_index, tu_le16toh(p_request->wIndex));
    1446:	792b      	ldrb	r3, [r5, #4]
    1448:	7969      	ldrb	r1, [r5, #5]
    144a:	0209      	lsls	r1, r1, #8
    144c:	4319      	orrs	r1, r3
    144e:	4b18      	ldr	r3, [pc, #96]	; (14b0 <process_get_descriptor+0xec>)
    1450:	4798      	blx	r3
      TU_VERIFY(desc_str);
    1452:	2800      	cmp	r0, #0
    1454:	d019      	beq.n	148a <process_get_descriptor+0xc6>
      return tud_control_xfer(rhport, p_request, (void*) (uintptr_t) desc_str, tu_desc_len(desc_str));
    1456:	7803      	ldrb	r3, [r0, #0]
    1458:	0002      	movs	r2, r0
    145a:	0029      	movs	r1, r5
    145c:	0020      	movs	r0, r4
    145e:	4c10      	ldr	r4, [pc, #64]	; (14a0 <process_get_descriptor+0xdc>)
    1460:	47a0      	blx	r4
    1462:	e7c6      	b.n	13f2 <process_get_descriptor+0x2e>
      TU_VERIFY( tud_descriptor_device_qualifier_cb );
    1464:	4b13      	ldr	r3, [pc, #76]	; (14b4 <process_get_descriptor+0xf0>)
    1466:	2b00      	cmp	r3, #0
    1468:	d011      	beq.n	148e <process_get_descriptor+0xca>
      uint8_t const* desc_qualifier = tud_descriptor_device_qualifier_cb();
    146a:	4798      	blx	r3
      TU_VERIFY(desc_qualifier);
    146c:	2800      	cmp	r0, #0
    146e:	d010      	beq.n	1492 <process_get_descriptor+0xce>
      return tud_control_xfer(rhport, p_request, (void*) (uintptr_t) desc_qualifier, tu_desc_len(desc_qualifier));
    1470:	7803      	ldrb	r3, [r0, #0]
    1472:	0002      	movs	r2, r0
    1474:	0029      	movs	r1, r5
    1476:	0020      	movs	r0, r4
    1478:	4c09      	ldr	r4, [pc, #36]	; (14a0 <process_get_descriptor+0xdc>)
    147a:	47a0      	blx	r4
    147c:	e7b9      	b.n	13f2 <process_get_descriptor+0x2e>
    default: return false;
    147e:	2000      	movs	r0, #0
    1480:	e7b7      	b.n	13f2 <process_get_descriptor+0x2e>
      if (!tud_descriptor_bos_cb) return false;
    1482:	2000      	movs	r0, #0
    1484:	e7b5      	b.n	13f2 <process_get_descriptor+0x2e>
        TU_VERIFY( tud_descriptor_other_speed_configuration_cb );
    1486:	2000      	movs	r0, #0
    1488:	e7b3      	b.n	13f2 <process_get_descriptor+0x2e>
      TU_VERIFY(desc_str);
    148a:	2000      	movs	r0, #0
    148c:	e7b1      	b.n	13f2 <process_get_descriptor+0x2e>
      TU_VERIFY( tud_descriptor_device_qualifier_cb );
    148e:	2000      	movs	r0, #0
    1490:	e7af      	b.n	13f2 <process_get_descriptor+0x2e>
      TU_VERIFY(desc_qualifier);
    1492:	2000      	movs	r0, #0
    1494:	e7ad      	b.n	13f2 <process_get_descriptor+0x2e>
    1496:	46c0      	nop			; (mov r8, r8)
    1498:	000035f0 	.word	0x000035f0
    149c:	00002f8d 	.word	0x00002f8d
    14a0:	00001fe9 	.word	0x00001fe9
	...
    14ac:	00002f95 	.word	0x00002f95
    14b0:	00002fa1 	.word	0x00002fa1
    14b4:	00000000 	.word	0x00000000

000014b8 <usbd_int_set>:
//--------------------------------------------------------------------+
// USBD API For Class Driver
//--------------------------------------------------------------------+

void usbd_int_set(bool enabled)
{
    14b8:	b510      	push	{r4, lr}
  if (enabled)
    14ba:	2800      	cmp	r0, #0
    14bc:	d104      	bne.n	14c8 <usbd_int_set+0x10>
  {
    dcd_int_enable(_usbd_rhport);
  }else
  {
    dcd_int_disable(_usbd_rhport);
    14be:	4b05      	ldr	r3, [pc, #20]	; (14d4 <usbd_int_set+0x1c>)
    14c0:	7818      	ldrb	r0, [r3, #0]
    14c2:	4b05      	ldr	r3, [pc, #20]	; (14d8 <usbd_int_set+0x20>)
    14c4:	4798      	blx	r3
  }
}
    14c6:	bd10      	pop	{r4, pc}
    dcd_int_enable(_usbd_rhport);
    14c8:	4b02      	ldr	r3, [pc, #8]	; (14d4 <usbd_int_set+0x1c>)
    14ca:	7818      	ldrb	r0, [r3, #0]
    14cc:	4b03      	ldr	r3, [pc, #12]	; (14dc <usbd_int_set+0x24>)
    14ce:	4798      	blx	r3
    14d0:	e7f9      	b.n	14c6 <usbd_int_set+0xe>
    14d2:	46c0      	nop			; (mov r8, r8)
    14d4:	20000004 	.word	0x20000004
    14d8:	0000229d 	.word	0x0000229d
    14dc:	00002291 	.word	0x00002291

000014e0 <tud_mounted>:
  return _usbd_dev.cfg_num ? true : false;
    14e0:	4b02      	ldr	r3, [pc, #8]	; (14ec <tud_mounted+0xc>)
    14e2:	7a58      	ldrb	r0, [r3, #9]
    14e4:	1e43      	subs	r3, r0, #1
    14e6:	4198      	sbcs	r0, r3
    14e8:	b2c0      	uxtb	r0, r0
}
    14ea:	4770      	bx	lr
    14ec:	200007e4 	.word	0x200007e4

000014f0 <tud_suspended>:
  return _usbd_dev.suspended;
    14f0:	4b02      	ldr	r3, [pc, #8]	; (14fc <tud_suspended+0xc>)
    14f2:	7a18      	ldrb	r0, [r3, #8]
    14f4:	0740      	lsls	r0, r0, #29
    14f6:	0fc0      	lsrs	r0, r0, #31
}
    14f8:	4770      	bx	lr
    14fa:	46c0      	nop			; (mov r8, r8)
    14fc:	200007e4 	.word	0x200007e4

00001500 <tud_disconnect>:
{
    1500:	b510      	push	{r4, lr}
  TU_VERIFY(dcd_disconnect);
    1502:	4b05      	ldr	r3, [pc, #20]	; (1518 <tud_disconnect+0x18>)
    1504:	2b00      	cmp	r3, #0
    1506:	d005      	beq.n	1514 <tud_disconnect+0x14>
  dcd_disconnect(_usbd_rhport);
    1508:	4b04      	ldr	r3, [pc, #16]	; (151c <tud_disconnect+0x1c>)
    150a:	7818      	ldrb	r0, [r3, #0]
    150c:	4b02      	ldr	r3, [pc, #8]	; (1518 <tud_disconnect+0x18>)
    150e:	4798      	blx	r3
  return true;
    1510:	2001      	movs	r0, #1
}
    1512:	bd10      	pop	{r4, pc}
  TU_VERIFY(dcd_disconnect);
    1514:	2000      	movs	r0, #0
    1516:	e7fc      	b.n	1512 <tud_disconnect+0x12>
    1518:	000022b1 	.word	0x000022b1
    151c:	20000004 	.word	0x20000004

00001520 <tud_connect>:
{
    1520:	b510      	push	{r4, lr}
  TU_VERIFY(dcd_connect);
    1522:	4b05      	ldr	r3, [pc, #20]	; (1538 <tud_connect+0x18>)
    1524:	2b00      	cmp	r3, #0
    1526:	d005      	beq.n	1534 <tud_connect+0x14>
  dcd_connect(_usbd_rhport);
    1528:	4b04      	ldr	r3, [pc, #16]	; (153c <tud_connect+0x1c>)
    152a:	7818      	ldrb	r0, [r3, #0]
    152c:	4b02      	ldr	r3, [pc, #8]	; (1538 <tud_connect+0x18>)
    152e:	4798      	blx	r3
  return true;
    1530:	2001      	movs	r0, #1
}
    1532:	bd10      	pop	{r4, pc}
  TU_VERIFY(dcd_connect);
    1534:	2000      	movs	r0, #0
    1536:	e7fc      	b.n	1532 <tud_connect+0x12>
    1538:	000022c5 	.word	0x000022c5
    153c:	20000004 	.word	0x20000004

00001540 <tud_inited>:
  return _usbd_rhport != RHPORT_INVALID;
    1540:	4b03      	ldr	r3, [pc, #12]	; (1550 <tud_inited+0x10>)
    1542:	7818      	ldrb	r0, [r3, #0]
    1544:	38ff      	subs	r0, #255	; 0xff
    1546:	1e43      	subs	r3, r0, #1
    1548:	4198      	sbcs	r0, r3
    154a:	b2c0      	uxtb	r0, r0
}
    154c:	4770      	bx	lr
    154e:	46c0      	nop			; (mov r8, r8)
    1550:	20000004 	.word	0x20000004

00001554 <tud_init>:
{
    1554:	b5f8      	push	{r3, r4, r5, r6, r7, lr}
    1556:	0006      	movs	r6, r0
  if ( tud_inited() ) return true;
    1558:	4b24      	ldr	r3, [pc, #144]	; (15ec <tud_init+0x98>)
    155a:	4798      	blx	r3
    155c:	1e05      	subs	r5, r0, #0
    155e:	d001      	beq.n	1564 <tud_init+0x10>
}
    1560:	0028      	movs	r0, r5
    1562:	bdf8      	pop	{r3, r4, r5, r6, r7, pc}
  tu_varclr(&_usbd_dev);
    1564:	4f22      	ldr	r7, [pc, #136]	; (15f0 <tud_init+0x9c>)
    1566:	0038      	movs	r0, r7
    1568:	3008      	adds	r0, #8
    156a:	2233      	movs	r2, #51	; 0x33
    156c:	2100      	movs	r1, #0
    156e:	4b21      	ldr	r3, [pc, #132]	; (15f4 <tud_init+0xa0>)
    1570:	4798      	blx	r3
  qhdl->interrupt_set(true);
}

TU_ATTR_ALWAYS_INLINE static inline osal_queue_t osal_queue_create(osal_queue_def_t* qdef)
{
  tu_fifo_clear(&qdef->ff);
    1572:	4c21      	ldr	r4, [pc, #132]	; (15f8 <tud_init+0xa4>)
    1574:	3404      	adds	r4, #4
    1576:	1d20      	adds	r0, r4, #4
    1578:	4b20      	ldr	r3, [pc, #128]	; (15fc <tud_init+0xa8>)
    157a:	4798      	blx	r3
  _usbd_q = osal_queue_create(&_usbd_qdef);
    157c:	63fc      	str	r4, [r7, #60]	; 0x3c
  if ( usbd_app_driver_get_cb )
    157e:	4b20      	ldr	r3, [pc, #128]	; (1600 <tud_init+0xac>)
    1580:	2b00      	cmp	r3, #0
    1582:	d003      	beq.n	158c <tud_init+0x38>
    _app_driver = usbd_app_driver_get_cb(&_app_driver_count);
    1584:	4c1a      	ldr	r4, [pc, #104]	; (15f0 <tud_init+0x9c>)
    1586:	1d20      	adds	r0, r4, #4
    1588:	4798      	blx	r3
    158a:	6020      	str	r0, [r4, #0]
  return NULL;
    158c:	2400      	movs	r4, #0
    158e:	e00e      	b.n	15ae <tud_init+0x5a>
    drvid -= _app_driver_count;
    1590:	1ae3      	subs	r3, r4, r3
    1592:	b2db      	uxtb	r3, r3
  if (drvid < BUILTIN_DRIVER_COUNT) return &_usbd_driver[drvid];
    1594:	2b00      	cmp	r3, #0
    1596:	d11d      	bne.n	15d4 <tud_init+0x80>
    1598:	005a      	lsls	r2, r3, #1
    159a:	18d3      	adds	r3, r2, r3
    159c:	00da      	lsls	r2, r3, #3
    159e:	4b19      	ldr	r3, [pc, #100]	; (1604 <tud_init+0xb0>)
    15a0:	189b      	adds	r3, r3, r2
    TU_ASSERT(driver);
    15a2:	2b00      	cmp	r3, #0
    15a4:	d0dc      	beq.n	1560 <tud_init+0xc>
    driver->init();
    15a6:	681b      	ldr	r3, [r3, #0]
    15a8:	4798      	blx	r3
  for (uint8_t i = 0; i < TOTAL_DRIVER_COUNT; i++)
    15aa:	3401      	adds	r4, #1
    15ac:	b2e4      	uxtb	r4, r4
    15ae:	4b10      	ldr	r3, [pc, #64]	; (15f0 <tud_init+0x9c>)
    15b0:	791b      	ldrb	r3, [r3, #4]
    15b2:	1c5a      	adds	r2, r3, #1
    15b4:	4294      	cmp	r4, r2
    15b6:	da0f      	bge.n	15d8 <tud_init+0x84>
  if ( usbd_app_driver_get_cb )
    15b8:	4a11      	ldr	r2, [pc, #68]	; (1600 <tud_init+0xac>)
    15ba:	2a00      	cmp	r2, #0
    15bc:	d008      	beq.n	15d0 <tud_init+0x7c>
    if ( drvid < _app_driver_count ) return &_app_driver[drvid];
    15be:	429c      	cmp	r4, r3
    15c0:	d2e6      	bcs.n	1590 <tud_init+0x3c>
    15c2:	0062      	lsls	r2, r4, #1
    15c4:	1912      	adds	r2, r2, r4
    15c6:	00d1      	lsls	r1, r2, #3
    15c8:	4b09      	ldr	r3, [pc, #36]	; (15f0 <tud_init+0x9c>)
    15ca:	681b      	ldr	r3, [r3, #0]
    15cc:	185b      	adds	r3, r3, r1
    15ce:	e7e8      	b.n	15a2 <tud_init+0x4e>
  if ( usbd_app_driver_get_cb )
    15d0:	0023      	movs	r3, r4
    15d2:	e7df      	b.n	1594 <tud_init+0x40>
  return NULL;
    15d4:	2300      	movs	r3, #0
    15d6:	e7e4      	b.n	15a2 <tud_init+0x4e>
  _usbd_rhport = rhport;
    15d8:	4b07      	ldr	r3, [pc, #28]	; (15f8 <tud_init+0xa4>)
    15da:	701e      	strb	r6, [r3, #0]
  dcd_init(rhport);
    15dc:	0030      	movs	r0, r6
    15de:	4b0a      	ldr	r3, [pc, #40]	; (1608 <tud_init+0xb4>)
    15e0:	4798      	blx	r3
  dcd_int_enable(rhport);
    15e2:	0030      	movs	r0, r6
    15e4:	4b09      	ldr	r3, [pc, #36]	; (160c <tud_init+0xb8>)
    15e6:	4798      	blx	r3
  return true;
    15e8:	2501      	movs	r5, #1
    15ea:	e7b9      	b.n	1560 <tud_init+0xc>
    15ec:	00001541 	.word	0x00001541
    15f0:	200007e4 	.word	0x200007e4
    15f4:	0000325d 	.word	0x0000325d
    15f8:	20000004 	.word	0x20000004
    15fc:	00001161 	.word	0x00001161
    1600:	00000000 	.word	0x00000000
    1604:	0000367c 	.word	0x0000367c
    1608:	000021f5 	.word	0x000021f5
    160c:	00002291 	.word	0x00002291

00001610 <dcd_event_handler>:
{
    1610:	b5f0      	push	{r4, r5, r6, r7, lr}
    1612:	b085      	sub	sp, #20
    1614:	0005      	movs	r5, r0
    1616:	000e      	movs	r6, r1
  switch (event->event_id)
    1618:	7843      	ldrb	r3, [r0, #1]
    161a:	2b03      	cmp	r3, #3
    161c:	d100      	bne.n	1620 <dcd_event_handler+0x10>
    161e:	e086      	b.n	172e <dcd_event_handler+0x11e>
    1620:	d91c      	bls.n	165c <dcd_event_handler+0x4c>
    1622:	2b04      	cmp	r3, #4
    1624:	d03d      	beq.n	16a2 <dcd_event_handler+0x92>
    1626:	2b05      	cmp	r3, #5
    1628:	d000      	beq.n	162c <dcd_event_handler+0x1c>
    162a:	e0a6      	b.n	177a <dcd_event_handler+0x16a>
      if ( _usbd_dev.connected )
    162c:	4b5d      	ldr	r3, [pc, #372]	; (17a4 <dcd_event_handler+0x194>)
    162e:	7a1b      	ldrb	r3, [r3, #8]
    1630:	07db      	lsls	r3, r3, #31
    1632:	d400      	bmi.n	1636 <dcd_event_handler+0x26>
    1634:	e0ab      	b.n	178e <dcd_event_handler+0x17e>
        _usbd_dev.suspended = 0;
    1636:	4b5b      	ldr	r3, [pc, #364]	; (17a4 <dcd_event_handler+0x194>)
    1638:	7a1a      	ldrb	r2, [r3, #8]
    163a:	2104      	movs	r1, #4
    163c:	438a      	bics	r2, r1
    163e:	721a      	strb	r2, [r3, #8]
        osal_queue_send(_usbd_q, event, in_isr);
    1640:	6bdc      	ldr	r4, [r3, #60]	; 0x3c
  return success;
}

TU_ATTR_ALWAYS_INLINE static inline bool osal_queue_send(osal_queue_t qhdl, void const * data, bool in_isr)
{
  if (!in_isr) {
    1642:	2e00      	cmp	r6, #0
    1644:	d047      	beq.n	16d6 <dcd_event_handler+0xc6>
    _osal_q_lock(qhdl);
  }

  bool success = tu_fifo_write(&qhdl->ff, data);
    1646:	1d20      	adds	r0, r4, #4
    1648:	0029      	movs	r1, r5
    164a:	4b57      	ldr	r3, [pc, #348]	; (17a8 <dcd_event_handler+0x198>)
    164c:	4798      	blx	r3

  if (!in_isr) {
    164e:	2e00      	cmp	r6, #0
    1650:	d000      	beq.n	1654 <dcd_event_handler+0x44>
    1652:	e09c      	b.n	178e <dcd_event_handler+0x17e>
  qhdl->interrupt_set(true);
    1654:	6823      	ldr	r3, [r4, #0]
    1656:	2001      	movs	r0, #1
    1658:	4798      	blx	r3
    165a:	e098      	b.n	178e <dcd_event_handler+0x17e>
  switch (event->event_id)
    165c:	2b02      	cmp	r3, #2
    165e:	d000      	beq.n	1662 <dcd_event_handler+0x52>
    1660:	e08b      	b.n	177a <dcd_event_handler+0x16a>
      _usbd_dev.connected  = 0;
    1662:	4b50      	ldr	r3, [pc, #320]	; (17a4 <dcd_event_handler+0x194>)
    1664:	7a1a      	ldrb	r2, [r3, #8]
    1666:	2101      	movs	r1, #1
    1668:	438a      	bics	r2, r1
    166a:	721a      	strb	r2, [r3, #8]
      _usbd_dev.addressed  = 0;
    166c:	7a1a      	ldrb	r2, [r3, #8]
    166e:	3101      	adds	r1, #1
    1670:	438a      	bics	r2, r1
    1672:	721a      	strb	r2, [r3, #8]
      _usbd_dev.cfg_num    = 0;
    1674:	2200      	movs	r2, #0
    1676:	725a      	strb	r2, [r3, #9]
      _usbd_dev.suspended  = 0;
    1678:	7a1a      	ldrb	r2, [r3, #8]
    167a:	3102      	adds	r1, #2
    167c:	438a      	bics	r2, r1
    167e:	721a      	strb	r2, [r3, #8]
      osal_queue_send(_usbd_q, event, in_isr);
    1680:	6bdc      	ldr	r4, [r3, #60]	; 0x3c
  if (!in_isr) {
    1682:	2e00      	cmp	r6, #0
    1684:	d009      	beq.n	169a <dcd_event_handler+0x8a>
  bool success = tu_fifo_write(&qhdl->ff, data);
    1686:	1d20      	adds	r0, r4, #4
    1688:	0029      	movs	r1, r5
    168a:	4b47      	ldr	r3, [pc, #284]	; (17a8 <dcd_event_handler+0x198>)
    168c:	4798      	blx	r3
  if (!in_isr) {
    168e:	2e00      	cmp	r6, #0
    1690:	d17d      	bne.n	178e <dcd_event_handler+0x17e>
  qhdl->interrupt_set(true);
    1692:	6823      	ldr	r3, [r4, #0]
    1694:	2001      	movs	r0, #1
    1696:	4798      	blx	r3
    1698:	e079      	b.n	178e <dcd_event_handler+0x17e>
  qhdl->interrupt_set(false);
    169a:	2000      	movs	r0, #0
    169c:	6823      	ldr	r3, [r4, #0]
    169e:	4798      	blx	r3
    16a0:	e7f1      	b.n	1686 <dcd_event_handler+0x76>
      if ( _usbd_dev.connected )
    16a2:	4b40      	ldr	r3, [pc, #256]	; (17a4 <dcd_event_handler+0x194>)
    16a4:	7a1b      	ldrb	r3, [r3, #8]
    16a6:	07db      	lsls	r3, r3, #31
    16a8:	d571      	bpl.n	178e <dcd_event_handler+0x17e>
        _usbd_dev.suspended = 1;
    16aa:	4b3e      	ldr	r3, [pc, #248]	; (17a4 <dcd_event_handler+0x194>)
    16ac:	7a1a      	ldrb	r2, [r3, #8]
    16ae:	2104      	movs	r1, #4
    16b0:	430a      	orrs	r2, r1
    16b2:	721a      	strb	r2, [r3, #8]
        osal_queue_send(_usbd_q, event, in_isr);
    16b4:	6bdc      	ldr	r4, [r3, #60]	; 0x3c
  if (!in_isr) {
    16b6:	2e00      	cmp	r6, #0
    16b8:	d009      	beq.n	16ce <dcd_event_handler+0xbe>
  bool success = tu_fifo_write(&qhdl->ff, data);
    16ba:	1d20      	adds	r0, r4, #4
    16bc:	0029      	movs	r1, r5
    16be:	4b3a      	ldr	r3, [pc, #232]	; (17a8 <dcd_event_handler+0x198>)
    16c0:	4798      	blx	r3
  if (!in_isr) {
    16c2:	2e00      	cmp	r6, #0
    16c4:	d163      	bne.n	178e <dcd_event_handler+0x17e>
  qhdl->interrupt_set(true);
    16c6:	6823      	ldr	r3, [r4, #0]
    16c8:	2001      	movs	r0, #1
    16ca:	4798      	blx	r3
    16cc:	e05f      	b.n	178e <dcd_event_handler+0x17e>
  qhdl->interrupt_set(false);
    16ce:	2000      	movs	r0, #0
    16d0:	6823      	ldr	r3, [r4, #0]
    16d2:	4798      	blx	r3
    16d4:	e7f1      	b.n	16ba <dcd_event_handler+0xaa>
    16d6:	2000      	movs	r0, #0
    16d8:	6823      	ldr	r3, [r4, #0]
    16da:	4798      	blx	r3
    16dc:	e7b3      	b.n	1646 <dcd_event_handler+0x36>
    drvid -= _app_driver_count;
    16de:	1ae3      	subs	r3, r4, r3
    16e0:	b2db      	uxtb	r3, r3
  if (drvid < BUILTIN_DRIVER_COUNT) return &_usbd_driver[drvid];
    16e2:	2b00      	cmp	r3, #0
    16e4:	d121      	bne.n	172a <dcd_event_handler+0x11a>
    16e6:	005a      	lsls	r2, r3, #1
    16e8:	18d3      	adds	r3, r2, r3
    16ea:	00da      	lsls	r2, r3, #3
    16ec:	4b2f      	ldr	r3, [pc, #188]	; (17ac <dcd_event_handler+0x19c>)
    16ee:	189b      	adds	r3, r3, r2
        if (driver && driver->sof)
    16f0:	2b00      	cmp	r3, #0
    16f2:	d005      	beq.n	1700 <dcd_event_handler+0xf0>
    16f4:	695b      	ldr	r3, [r3, #20]
    16f6:	2b00      	cmp	r3, #0
    16f8:	d002      	beq.n	1700 <dcd_event_handler+0xf0>
          driver->sof(event->rhport, event->sof.frame_count);
    16fa:	7828      	ldrb	r0, [r5, #0]
    16fc:	6869      	ldr	r1, [r5, #4]
    16fe:	4798      	blx	r3
      for (uint8_t i = 0; i < TOTAL_DRIVER_COUNT; i++)
    1700:	3401      	adds	r4, #1
    1702:	b2e4      	uxtb	r4, r4
    1704:	4b27      	ldr	r3, [pc, #156]	; (17a4 <dcd_event_handler+0x194>)
    1706:	791b      	ldrb	r3, [r3, #4]
    1708:	1c5a      	adds	r2, r3, #1
    170a:	4294      	cmp	r4, r2
    170c:	da11      	bge.n	1732 <dcd_event_handler+0x122>
  if ( usbd_app_driver_get_cb )
    170e:	4a28      	ldr	r2, [pc, #160]	; (17b0 <dcd_event_handler+0x1a0>)
    1710:	2a00      	cmp	r2, #0
    1712:	d008      	beq.n	1726 <dcd_event_handler+0x116>
    if ( drvid < _app_driver_count ) return &_app_driver[drvid];
    1714:	429c      	cmp	r4, r3
    1716:	d2e2      	bcs.n	16de <dcd_event_handler+0xce>
    1718:	0062      	lsls	r2, r4, #1
    171a:	1912      	adds	r2, r2, r4
    171c:	00d1      	lsls	r1, r2, #3
    171e:	4b21      	ldr	r3, [pc, #132]	; (17a4 <dcd_event_handler+0x194>)
    1720:	681b      	ldr	r3, [r3, #0]
    1722:	185b      	adds	r3, r3, r1
    1724:	e7e4      	b.n	16f0 <dcd_event_handler+0xe0>
  if ( usbd_app_driver_get_cb )
    1726:	0023      	movs	r3, r4
    1728:	e7db      	b.n	16e2 <dcd_event_handler+0xd2>
  return NULL;
    172a:	2300      	movs	r3, #0
    172c:	e7e0      	b.n	16f0 <dcd_event_handler+0xe0>
  switch (event->event_id)
    172e:	2400      	movs	r4, #0
    1730:	e7e8      	b.n	1704 <dcd_event_handler+0xf4>
      if ( _usbd_dev.suspended )
    1732:	4b1c      	ldr	r3, [pc, #112]	; (17a4 <dcd_event_handler+0x194>)
    1734:	7a1b      	ldrb	r3, [r3, #8]
    1736:	075b      	lsls	r3, r3, #29
    1738:	d529      	bpl.n	178e <dcd_event_handler+0x17e>
        _usbd_dev.suspended = 0;
    173a:	4c1a      	ldr	r4, [pc, #104]	; (17a4 <dcd_event_handler+0x194>)
    173c:	7a23      	ldrb	r3, [r4, #8]
    173e:	2204      	movs	r2, #4
    1740:	4393      	bics	r3, r2
    1742:	7223      	strb	r3, [r4, #8]
        dcd_event_t const event_resume = { .rhport = event->rhport, .event_id = DCD_EVENT_RESUME };
    1744:	af01      	add	r7, sp, #4
    1746:	3208      	adds	r2, #8
    1748:	2100      	movs	r1, #0
    174a:	0038      	movs	r0, r7
    174c:	4b19      	ldr	r3, [pc, #100]	; (17b4 <dcd_event_handler+0x1a4>)
    174e:	4798      	blx	r3
    1750:	782b      	ldrb	r3, [r5, #0]
    1752:	703b      	strb	r3, [r7, #0]
    1754:	2305      	movs	r3, #5
    1756:	707b      	strb	r3, [r7, #1]
        osal_queue_send(_usbd_q, &event_resume, in_isr);
    1758:	6be4      	ldr	r4, [r4, #60]	; 0x3c
  if (!in_isr) {
    175a:	2e00      	cmp	r6, #0
    175c:	d009      	beq.n	1772 <dcd_event_handler+0x162>
  bool success = tu_fifo_write(&qhdl->ff, data);
    175e:	1d20      	adds	r0, r4, #4
    1760:	a901      	add	r1, sp, #4
    1762:	4b11      	ldr	r3, [pc, #68]	; (17a8 <dcd_event_handler+0x198>)
    1764:	4798      	blx	r3
  if (!in_isr) {
    1766:	2e00      	cmp	r6, #0
    1768:	d111      	bne.n	178e <dcd_event_handler+0x17e>
  qhdl->interrupt_set(true);
    176a:	6823      	ldr	r3, [r4, #0]
    176c:	2001      	movs	r0, #1
    176e:	4798      	blx	r3
    1770:	e00d      	b.n	178e <dcd_event_handler+0x17e>
  qhdl->interrupt_set(false);
    1772:	2000      	movs	r0, #0
    1774:	6823      	ldr	r3, [r4, #0]
    1776:	4798      	blx	r3
    1778:	e7f1      	b.n	175e <dcd_event_handler+0x14e>
      osal_queue_send(_usbd_q, event, in_isr);
    177a:	4b0a      	ldr	r3, [pc, #40]	; (17a4 <dcd_event_handler+0x194>)
    177c:	6bdc      	ldr	r4, [r3, #60]	; 0x3c
  if (!in_isr) {
    177e:	2e00      	cmp	r6, #0
    1780:	d007      	beq.n	1792 <dcd_event_handler+0x182>
  bool success = tu_fifo_write(&qhdl->ff, data);
    1782:	1d20      	adds	r0, r4, #4
    1784:	0029      	movs	r1, r5
    1786:	4b08      	ldr	r3, [pc, #32]	; (17a8 <dcd_event_handler+0x198>)
    1788:	4798      	blx	r3
  if (!in_isr) {
    178a:	2e00      	cmp	r6, #0
    178c:	d005      	beq.n	179a <dcd_event_handler+0x18a>
}
    178e:	b005      	add	sp, #20
    1790:	bdf0      	pop	{r4, r5, r6, r7, pc}
  qhdl->interrupt_set(false);
    1792:	2000      	movs	r0, #0
    1794:	6823      	ldr	r3, [r4, #0]
    1796:	4798      	blx	r3
    1798:	e7f3      	b.n	1782 <dcd_event_handler+0x172>
  qhdl->interrupt_set(true);
    179a:	6823      	ldr	r3, [r4, #0]
    179c:	2001      	movs	r0, #1
    179e:	4798      	blx	r3
    17a0:	e7f5      	b.n	178e <dcd_event_handler+0x17e>
    17a2:	46c0      	nop			; (mov r8, r8)
    17a4:	200007e4 	.word	0x200007e4
    17a8:	000010f1 	.word	0x000010f1
    17ac:	0000367c 	.word	0x0000367c
    17b0:	00000000 	.word	0x00000000
    17b4:	0000325d 	.word	0x0000325d

000017b8 <usbd_edpt_open>:
//--------------------------------------------------------------------+
// USBD Endpoint API
//--------------------------------------------------------------------+

bool usbd_edpt_open(uint8_t rhport, tusb_desc_endpoint_t const * desc_ep)
{
    17b8:	b570      	push	{r4, r5, r6, lr}
    17ba:	000c      	movs	r4, r1
  rhport = _usbd_rhport;
    17bc:	4b0a      	ldr	r3, [pc, #40]	; (17e8 <usbd_edpt_open+0x30>)
    17be:	781d      	ldrb	r5, [r3, #0]

  TU_ASSERT(tu_edpt_number(desc_ep->bEndpointAddress) < CFG_TUD_ENDPPOINT_MAX);
    17c0:	788a      	ldrb	r2, [r1, #2]
  return (uint8_t)(addr & (~TUSB_DIR_IN_MASK));
    17c2:	237f      	movs	r3, #127	; 0x7f
    17c4:	4013      	ands	r3, r2
    17c6:	2b07      	cmp	r3, #7
    17c8:	d901      	bls.n	17ce <usbd_edpt_open+0x16>
    17ca:	2000      	movs	r0, #0
  TU_ASSERT(tu_edpt_validate(desc_ep, (tusb_speed_t) _usbd_dev.speed));

  return dcd_edpt_open(rhport, desc_ep);
}
    17cc:	bd70      	pop	{r4, r5, r6, pc}
  TU_ASSERT(tu_edpt_validate(desc_ep, (tusb_speed_t) _usbd_dev.speed));
    17ce:	4b07      	ldr	r3, [pc, #28]	; (17ec <usbd_edpt_open+0x34>)
    17d0:	7a99      	ldrb	r1, [r3, #10]
    17d2:	0020      	movs	r0, r4
    17d4:	4b06      	ldr	r3, [pc, #24]	; (17f0 <usbd_edpt_open+0x38>)
    17d6:	4798      	blx	r3
    17d8:	2800      	cmp	r0, #0
    17da:	d0f7      	beq.n	17cc <usbd_edpt_open+0x14>
  return dcd_edpt_open(rhport, desc_ep);
    17dc:	0021      	movs	r1, r4
    17de:	0028      	movs	r0, r5
    17e0:	4b04      	ldr	r3, [pc, #16]	; (17f4 <usbd_edpt_open+0x3c>)
    17e2:	4798      	blx	r3
    17e4:	e7f2      	b.n	17cc <usbd_edpt_open+0x14>
    17e6:	46c0      	nop			; (mov r8, r8)
    17e8:	20000004 	.word	0x20000004
    17ec:	200007e4 	.word	0x200007e4
    17f0:	00002ef1 	.word	0x00002ef1
    17f4:	0000231d 	.word	0x0000231d

000017f8 <usbd_open_edpt_pair>:
{
    17f8:	b5f0      	push	{r4, r5, r6, r7, lr}
    17fa:	46c6      	mov	lr, r8
    17fc:	b500      	push	{lr}
    17fe:	b082      	sub	sp, #8
    1800:	9001      	str	r0, [sp, #4]
    1802:	000c      	movs	r4, r1
    1804:	0016      	movs	r6, r2
    1806:	001d      	movs	r5, r3
    1808:	9b08      	ldr	r3, [sp, #32]
    180a:	4698      	mov	r8, r3
  for(int i=0; i<ep_count; i++)
    180c:	2700      	movs	r7, #0
    180e:	e004      	b.n	181a <usbd_open_edpt_pair+0x22>
      (*ep_in) = desc_ep->bEndpointAddress;
    1810:	9a09      	ldr	r2, [sp, #36]	; 0x24
    1812:	7013      	strb	r3, [r2, #0]
  return desc8 + desc8[DESC_OFFSET_LEN];
    1814:	7823      	ldrb	r3, [r4, #0]
    1816:	18e4      	adds	r4, r4, r3
  for(int i=0; i<ep_count; i++)
    1818:	3701      	adds	r7, #1
    181a:	42b7      	cmp	r7, r6
    181c:	da14      	bge.n	1848 <usbd_open_edpt_pair+0x50>
    TU_ASSERT(TUSB_DESC_ENDPOINT == desc_ep->bDescriptorType && xfer_type == desc_ep->bmAttributes.xfer);
    181e:	7863      	ldrb	r3, [r4, #1]
    1820:	2b05      	cmp	r3, #5
    1822:	d116      	bne.n	1852 <usbd_open_edpt_pair+0x5a>
    1824:	78e3      	ldrb	r3, [r4, #3]
    1826:	079b      	lsls	r3, r3, #30
    1828:	0f9b      	lsrs	r3, r3, #30
    182a:	42ab      	cmp	r3, r5
    182c:	d113      	bne.n	1856 <usbd_open_edpt_pair+0x5e>
    TU_ASSERT(usbd_edpt_open(rhport, desc_ep));
    182e:	0021      	movs	r1, r4
    1830:	9801      	ldr	r0, [sp, #4]
    1832:	4b0a      	ldr	r3, [pc, #40]	; (185c <usbd_open_edpt_pair+0x64>)
    1834:	4798      	blx	r3
    1836:	2800      	cmp	r0, #0
    1838:	d007      	beq.n	184a <usbd_open_edpt_pair+0x52>
    if ( tu_edpt_dir(desc_ep->bEndpointAddress) == TUSB_DIR_IN )
    183a:	78a3      	ldrb	r3, [r4, #2]
  return (addr & TUSB_DIR_IN_MASK) ? TUSB_DIR_IN : TUSB_DIR_OUT;
    183c:	b25a      	sxtb	r2, r3
    183e:	2a00      	cmp	r2, #0
    1840:	dbe6      	blt.n	1810 <usbd_open_edpt_pair+0x18>
      (*ep_out) = desc_ep->bEndpointAddress;
    1842:	4642      	mov	r2, r8
    1844:	7013      	strb	r3, [r2, #0]
    1846:	e7e5      	b.n	1814 <usbd_open_edpt_pair+0x1c>
  return true;
    1848:	2001      	movs	r0, #1
}
    184a:	b002      	add	sp, #8
    184c:	bc04      	pop	{r2}
    184e:	4690      	mov	r8, r2
    1850:	bdf0      	pop	{r4, r5, r6, r7, pc}
    TU_ASSERT(TUSB_DESC_ENDPOINT == desc_ep->bDescriptorType && xfer_type == desc_ep->bmAttributes.xfer);
    1852:	2000      	movs	r0, #0
    1854:	e7f9      	b.n	184a <usbd_open_edpt_pair+0x52>
    1856:	2000      	movs	r0, #0
    1858:	e7f7      	b.n	184a <usbd_open_edpt_pair+0x52>
    185a:	46c0      	nop			; (mov r8, r8)
    185c:	000017b9 	.word	0x000017b9

00001860 <usbd_edpt_claim>:

bool usbd_edpt_claim(uint8_t rhport, uint8_t ep_addr)
{
    1860:	b510      	push	{r4, lr}
  return (uint8_t)(addr & (~TUSB_DIR_IN_MASK));
    1862:	207f      	movs	r0, #127	; 0x7f
    1864:	4008      	ands	r0, r1
  return (addr & TUSB_DIR_IN_MASK) ? TUSB_DIR_IN : TUSB_DIR_OUT;
    1866:	09c9      	lsrs	r1, r1, #7
  // TODO add this check later, also make sure we don't starve an out endpoint while suspending
  // TU_VERIFY(tud_ready());

  uint8_t const epnum       = tu_edpt_number(ep_addr);
  uint8_t const dir         = tu_edpt_dir(ep_addr);
  tu_edpt_state_t* ep_state = &_usbd_dev.ep_status[epnum][dir];
    1868:	0040      	lsls	r0, r0, #1
    186a:	1840      	adds	r0, r0, r1
    186c:	3020      	adds	r0, #32
    186e:	4904      	ldr	r1, [pc, #16]	; (1880 <usbd_edpt_claim+0x20>)
    1870:	3108      	adds	r1, #8
    1872:	1808      	adds	r0, r1, r0
    1874:	3003      	adds	r0, #3

#if TUSB_OPT_MUTEX
  return tu_edpt_claim(ep_state, _usbd_mutex);
#else
  return tu_edpt_claim(ep_state, NULL);
    1876:	2100      	movs	r1, #0
    1878:	4b02      	ldr	r3, [pc, #8]	; (1884 <usbd_edpt_claim+0x24>)
    187a:	4798      	blx	r3
#endif
}
    187c:	bd10      	pop	{r4, pc}
    187e:	46c0      	nop			; (mov r8, r8)
    1880:	200007e4 	.word	0x200007e4
    1884:	00002ea5 	.word	0x00002ea5

00001888 <usbd_edpt_release>:

bool usbd_edpt_release(uint8_t rhport, uint8_t ep_addr)
{
    1888:	b510      	push	{r4, lr}
  return (uint8_t)(addr & (~TUSB_DIR_IN_MASK));
    188a:	207f      	movs	r0, #127	; 0x7f
    188c:	4008      	ands	r0, r1
  return (addr & TUSB_DIR_IN_MASK) ? TUSB_DIR_IN : TUSB_DIR_OUT;
    188e:	09c9      	lsrs	r1, r1, #7
  (void) rhport;

  uint8_t const epnum       = tu_edpt_number(ep_addr);
  uint8_t const dir         = tu_edpt_dir(ep_addr);
  tu_edpt_state_t* ep_state = &_usbd_dev.ep_status[epnum][dir];
    1890:	0040      	lsls	r0, r0, #1
    1892:	1840      	adds	r0, r0, r1
    1894:	3020      	adds	r0, #32
    1896:	4904      	ldr	r1, [pc, #16]	; (18a8 <usbd_edpt_release+0x20>)
    1898:	3108      	adds	r1, #8
    189a:	1808      	adds	r0, r1, r0
    189c:	3003      	adds	r0, #3

#if TUSB_OPT_MUTEX
  return tu_edpt_release(ep_state, _usbd_mutex);
#else
  return tu_edpt_release(ep_state, NULL);
    189e:	2100      	movs	r1, #0
    18a0:	4b02      	ldr	r3, [pc, #8]	; (18ac <usbd_edpt_release+0x24>)
    18a2:	4798      	blx	r3
#endif
}
    18a4:	bd10      	pop	{r4, pc}
    18a6:	46c0      	nop			; (mov r8, r8)
    18a8:	200007e4 	.word	0x200007e4
    18ac:	00002ecb 	.word	0x00002ecb

000018b0 <usbd_edpt_xfer>:

bool usbd_edpt_xfer(uint8_t rhport, uint8_t ep_addr, uint8_t * buffer, uint16_t total_bytes)
{
    18b0:	b5f8      	push	{r3, r4, r5, r6, r7, lr}
    18b2:	46ce      	mov	lr, r9
    18b4:	4647      	mov	r7, r8
    18b6:	b580      	push	{r7, lr}
  rhport = _usbd_rhport;
    18b8:	4819      	ldr	r0, [pc, #100]	; (1920 <usbd_edpt_xfer+0x70>)
    18ba:	7800      	ldrb	r0, [r0, #0]
  return (uint8_t)(addr & (~TUSB_DIR_IN_MASK));
    18bc:	257f      	movs	r5, #127	; 0x7f
    18be:	400d      	ands	r5, r1
  return (addr & TUSB_DIR_IN_MASK) ? TUSB_DIR_IN : TUSB_DIR_OUT;
    18c0:	09ce      	lsrs	r6, r1, #7
  // TU_VERIFY(tud_ready());

  TU_LOG(USBD_DBG, "  Queue EP %02X with %u bytes ...\r\n", ep_addr, total_bytes);

  // Attempt to transfer on a busy endpoint, sound like an race condition !
  TU_ASSERT(_usbd_dev.ep_status[epnum][dir].busy == 0);
    18c2:	006f      	lsls	r7, r5, #1
    18c4:	4c17      	ldr	r4, [pc, #92]	; (1924 <usbd_edpt_xfer+0x74>)
    18c6:	19e4      	adds	r4, r4, r7
    18c8:	19a4      	adds	r4, r4, r6
    18ca:	3428      	adds	r4, #40	; 0x28
    18cc:	78e4      	ldrb	r4, [r4, #3]
    18ce:	07e4      	lsls	r4, r4, #31
    18d0:	d504      	bpl.n	18dc <usbd_edpt_xfer+0x2c>
    18d2:	2000      	movs	r0, #0
    _usbd_dev.ep_status[epnum][dir].claimed = 0;
    TU_LOG(USBD_DBG, "FAILED\r\n");
    TU_BREAKPOINT();
    return false;
  }
}
    18d4:	bc0c      	pop	{r2, r3}
    18d6:	4690      	mov	r8, r2
    18d8:	4699      	mov	r9, r3
    18da:	bdf8      	pop	{r3, r4, r5, r6, r7, pc}
  _usbd_dev.ep_status[epnum][dir].busy = true;
    18dc:	4c11      	ldr	r4, [pc, #68]	; (1924 <usbd_edpt_xfer+0x74>)
    18de:	19e4      	adds	r4, r4, r7
    18e0:	19a4      	adds	r4, r4, r6
    18e2:	2728      	movs	r7, #40	; 0x28
    18e4:	46b9      	mov	r9, r7
    18e6:	44a1      	add	r9, r4
    18e8:	464c      	mov	r4, r9
    18ea:	78e4      	ldrb	r4, [r4, #3]
    18ec:	2701      	movs	r7, #1
    18ee:	46bc      	mov	ip, r7
    18f0:	4667      	mov	r7, ip
    18f2:	433c      	orrs	r4, r7
    18f4:	0027      	movs	r7, r4
    18f6:	464c      	mov	r4, r9
    18f8:	70e7      	strb	r7, [r4, #3]
  if ( dcd_edpt_xfer(rhport, ep_addr, buffer, total_bytes) )
    18fa:	4c0b      	ldr	r4, [pc, #44]	; (1928 <usbd_edpt_xfer+0x78>)
    18fc:	47a0      	blx	r4
    18fe:	2800      	cmp	r0, #0
    1900:	d1e8      	bne.n	18d4 <usbd_edpt_xfer+0x24>
    _usbd_dev.ep_status[epnum][dir].busy = false;
    1902:	006d      	lsls	r5, r5, #1
    1904:	4b07      	ldr	r3, [pc, #28]	; (1924 <usbd_edpt_xfer+0x74>)
    1906:	195d      	adds	r5, r3, r5
    1908:	19ae      	adds	r6, r5, r6
    190a:	3628      	adds	r6, #40	; 0x28
    190c:	78f3      	ldrb	r3, [r6, #3]
    190e:	2201      	movs	r2, #1
    1910:	4393      	bics	r3, r2
    1912:	70f3      	strb	r3, [r6, #3]
    _usbd_dev.ep_status[epnum][dir].claimed = 0;
    1914:	78f3      	ldrb	r3, [r6, #3]
    1916:	3203      	adds	r2, #3
    1918:	4393      	bics	r3, r2
    191a:	70f3      	strb	r3, [r6, #3]
    return false;
    191c:	e7da      	b.n	18d4 <usbd_edpt_xfer+0x24>
    191e:	46c0      	nop			; (mov r8, r8)
    1920:	20000004 	.word	0x20000004
    1924:	200007e4 	.word	0x200007e4
    1928:	000023f1 	.word	0x000023f1

0000192c <usbd_edpt_stall>:

  return _usbd_dev.ep_status[epnum][dir].busy;
}

void usbd_edpt_stall(uint8_t rhport, uint8_t ep_addr)
{
    192c:	b570      	push	{r4, r5, r6, lr}
  rhport = _usbd_rhport;
    192e:	4b0f      	ldr	r3, [pc, #60]	; (196c <usbd_edpt_stall+0x40>)
    1930:	7818      	ldrb	r0, [r3, #0]
  return (uint8_t)(addr & (~TUSB_DIR_IN_MASK));
    1932:	247f      	movs	r4, #127	; 0x7f
    1934:	400c      	ands	r4, r1
  return (addr & TUSB_DIR_IN_MASK) ? TUSB_DIR_IN : TUSB_DIR_OUT;
    1936:	09cd      	lsrs	r5, r1, #7

  uint8_t const epnum = tu_edpt_number(ep_addr);
  uint8_t const dir   = tu_edpt_dir(ep_addr);

  // only stalled if currently cleared
  if ( !_usbd_dev.ep_status[epnum][dir].stalled )
    1938:	0062      	lsls	r2, r4, #1
    193a:	4b0d      	ldr	r3, [pc, #52]	; (1970 <usbd_edpt_stall+0x44>)
    193c:	189b      	adds	r3, r3, r2
    193e:	195b      	adds	r3, r3, r5
    1940:	3328      	adds	r3, #40	; 0x28
    1942:	78db      	ldrb	r3, [r3, #3]
    1944:	079b      	lsls	r3, r3, #30
    1946:	d500      	bpl.n	194a <usbd_edpt_stall+0x1e>
    TU_LOG(USBD_DBG, "    Stall EP %02X\r\n", ep_addr);
    dcd_edpt_stall(rhport, ep_addr);
    _usbd_dev.ep_status[epnum][dir].stalled = true;
    _usbd_dev.ep_status[epnum][dir].busy = true;
  }
}
    1948:	bd70      	pop	{r4, r5, r6, pc}
    dcd_edpt_stall(rhport, ep_addr);
    194a:	4b0a      	ldr	r3, [pc, #40]	; (1974 <usbd_edpt_stall+0x48>)
    194c:	4798      	blx	r3
    _usbd_dev.ep_status[epnum][dir].stalled = true;
    194e:	0063      	lsls	r3, r4, #1
    1950:	4c07      	ldr	r4, [pc, #28]	; (1970 <usbd_edpt_stall+0x44>)
    1952:	18e4      	adds	r4, r4, r3
    1954:	1964      	adds	r4, r4, r5
    1956:	3428      	adds	r4, #40	; 0x28
    1958:	78e3      	ldrb	r3, [r4, #3]
    195a:	2202      	movs	r2, #2
    195c:	4313      	orrs	r3, r2
    195e:	70e3      	strb	r3, [r4, #3]
    _usbd_dev.ep_status[epnum][dir].busy = true;
    1960:	78e3      	ldrb	r3, [r4, #3]
    1962:	2201      	movs	r2, #1
    1964:	4313      	orrs	r3, r2
    1966:	70e3      	strb	r3, [r4, #3]
}
    1968:	e7ee      	b.n	1948 <usbd_edpt_stall+0x1c>
    196a:	46c0      	nop			; (mov r8, r8)
    196c:	20000004 	.word	0x20000004
    1970:	200007e4 	.word	0x200007e4
    1974:	000024cd 	.word	0x000024cd

00001978 <usbd_edpt_clear_stall>:

void usbd_edpt_clear_stall(uint8_t rhport, uint8_t ep_addr)
{
    1978:	b570      	push	{r4, r5, r6, lr}
  rhport = _usbd_rhport;
    197a:	4b0f      	ldr	r3, [pc, #60]	; (19b8 <usbd_edpt_clear_stall+0x40>)
    197c:	7818      	ldrb	r0, [r3, #0]
  return (uint8_t)(addr & (~TUSB_DIR_IN_MASK));
    197e:	247f      	movs	r4, #127	; 0x7f
    1980:	400c      	ands	r4, r1
  return (addr & TUSB_DIR_IN_MASK) ? TUSB_DIR_IN : TUSB_DIR_OUT;
    1982:	09cd      	lsrs	r5, r1, #7

  uint8_t const epnum = tu_edpt_number(ep_addr);
  uint8_t const dir   = tu_edpt_dir(ep_addr);

  // only clear if currently stalled
  if ( _usbd_dev.ep_status[epnum][dir].stalled )
    1984:	0062      	lsls	r2, r4, #1
    1986:	4b0d      	ldr	r3, [pc, #52]	; (19bc <usbd_edpt_clear_stall+0x44>)
    1988:	189b      	adds	r3, r3, r2
    198a:	195b      	adds	r3, r3, r5
    198c:	3328      	adds	r3, #40	; 0x28
    198e:	78db      	ldrb	r3, [r3, #3]
    1990:	079b      	lsls	r3, r3, #30
    1992:	d400      	bmi.n	1996 <usbd_edpt_clear_stall+0x1e>
    TU_LOG(USBD_DBG, "    Clear Stall EP %02X\r\n", ep_addr);
    dcd_edpt_clear_stall(rhport, ep_addr);
    _usbd_dev.ep_status[epnum][dir].stalled = false;
    _usbd_dev.ep_status[epnum][dir].busy = false;
  }
}
    1994:	bd70      	pop	{r4, r5, r6, pc}
    dcd_edpt_clear_stall(rhport, ep_addr);
    1996:	4b0a      	ldr	r3, [pc, #40]	; (19c0 <usbd_edpt_clear_stall+0x48>)
    1998:	4798      	blx	r3
    _usbd_dev.ep_status[epnum][dir].stalled = false;
    199a:	0063      	lsls	r3, r4, #1
    199c:	4c07      	ldr	r4, [pc, #28]	; (19bc <usbd_edpt_clear_stall+0x44>)
    199e:	18e4      	adds	r4, r4, r3
    19a0:	1964      	adds	r4, r4, r5
    19a2:	3428      	adds	r4, #40	; 0x28
    19a4:	78e3      	ldrb	r3, [r4, #3]
    19a6:	2202      	movs	r2, #2
    19a8:	4393      	bics	r3, r2
    19aa:	70e3      	strb	r3, [r4, #3]
    _usbd_dev.ep_status[epnum][dir].busy = false;
    19ac:	78e3      	ldrb	r3, [r4, #3]
    19ae:	3a01      	subs	r2, #1
    19b0:	4393      	bics	r3, r2
    19b2:	70e3      	strb	r3, [r4, #3]
}
    19b4:	e7ee      	b.n	1994 <usbd_edpt_clear_stall+0x1c>
    19b6:	46c0      	nop			; (mov r8, r8)
    19b8:	20000004 	.word	0x20000004
    19bc:	200007e4 	.word	0x200007e4
    19c0:	000024f1 	.word	0x000024f1

000019c4 <usbd_edpt_stalled>:
  return (uint8_t)(addr & (~TUSB_DIR_IN_MASK));
    19c4:	237f      	movs	r3, #127	; 0x7f
    19c6:	400b      	ands	r3, r1
  return (addr & TUSB_DIR_IN_MASK) ? TUSB_DIR_IN : TUSB_DIR_OUT;
    19c8:	09ca      	lsrs	r2, r1, #7
  (void) rhport;

  uint8_t const epnum = tu_edpt_number(ep_addr);
  uint8_t const dir   = tu_edpt_dir(ep_addr);

  return _usbd_dev.ep_status[epnum][dir].stalled;
    19ca:	005b      	lsls	r3, r3, #1
    19cc:	4903      	ldr	r1, [pc, #12]	; (19dc <usbd_edpt_stalled+0x18>)
    19ce:	18c9      	adds	r1, r1, r3
    19d0:	1889      	adds	r1, r1, r2
    19d2:	3128      	adds	r1, #40	; 0x28
    19d4:	78c8      	ldrb	r0, [r1, #3]
    19d6:	0780      	lsls	r0, r0, #30
    19d8:	0fc0      	lsrs	r0, r0, #31
}
    19da:	4770      	bx	lr
    19dc:	200007e4 	.word	0x200007e4

000019e0 <process_control_request>:
{
    19e0:	b5f0      	push	{r4, r5, r6, r7, lr}
    19e2:	46c6      	mov	lr, r8
    19e4:	b500      	push	{lr}
    19e6:	b082      	sub	sp, #8
    19e8:	0004      	movs	r4, r0
    19ea:	000d      	movs	r5, r1
  usbd_control_set_complete_callback(NULL);
    19ec:	2000      	movs	r0, #0
    19ee:	4bc9      	ldr	r3, [pc, #804]	; (1d14 <process_control_request+0x334>)
    19f0:	4798      	blx	r3
  TU_ASSERT(p_request->bmRequestType_bit.type < TUSB_REQ_TYPE_INVALID);
    19f2:	782b      	ldrb	r3, [r5, #0]
    19f4:	065b      	lsls	r3, r3, #25
    19f6:	0f9b      	lsrs	r3, r3, #30
    19f8:	2b02      	cmp	r3, #2
    19fa:	dd00      	ble.n	19fe <process_control_request+0x1e>
    19fc:	e1b4      	b.n	1d68 <process_control_request+0x388>
  if ( p_request->bmRequestType_bit.type == TUSB_REQ_TYPE_VENDOR )
    19fe:	782b      	ldrb	r3, [r5, #0]
    1a00:	2260      	movs	r2, #96	; 0x60
    1a02:	401a      	ands	r2, r3
    1a04:	2a40      	cmp	r2, #64	; 0x40
    1a06:	d00c      	beq.n	1a22 <process_control_request+0x42>
  switch ( p_request->bmRequestType_bit.recipient )
    1a08:	782b      	ldrb	r3, [r5, #0]
    1a0a:	06db      	lsls	r3, r3, #27
    1a0c:	0edb      	lsrs	r3, r3, #27
    1a0e:	2b01      	cmp	r3, #1
    1a10:	d100      	bne.n	1a14 <process_control_request+0x34>
    1a12:	e0cc      	b.n	1bae <process_control_request+0x1ce>
    1a14:	2b00      	cmp	r3, #0
    1a16:	d011      	beq.n	1a3c <process_control_request+0x5c>
    1a18:	2b02      	cmp	r3, #2
    1a1a:	d100      	bne.n	1a1e <process_control_request+0x3e>
    1a1c:	e112      	b.n	1c44 <process_control_request+0x264>
    default: TU_BREAKPOINT(); return false;
    1a1e:	2000      	movs	r0, #0
    1a20:	e1a3      	b.n	1d6a <process_control_request+0x38a>
    TU_VERIFY(tud_vendor_control_xfer_cb);
    1a22:	4bbd      	ldr	r3, [pc, #756]	; (1d18 <process_control_request+0x338>)
    1a24:	2b00      	cmp	r3, #0
    1a26:	d100      	bne.n	1a2a <process_control_request+0x4a>
    1a28:	e1a3      	b.n	1d72 <process_control_request+0x392>
    usbd_control_set_complete_callback(tud_vendor_control_xfer_cb);
    1a2a:	001e      	movs	r6, r3
    1a2c:	0018      	movs	r0, r3
    1a2e:	4bb9      	ldr	r3, [pc, #740]	; (1d14 <process_control_request+0x334>)
    1a30:	4798      	blx	r3
    return tud_vendor_control_xfer_cb(rhport, CONTROL_STAGE_SETUP, p_request);
    1a32:	002a      	movs	r2, r5
    1a34:	2101      	movs	r1, #1
    1a36:	0020      	movs	r0, r4
    1a38:	47b0      	blx	r6
    1a3a:	e196      	b.n	1d6a <process_control_request+0x38a>
      if ( TUSB_REQ_TYPE_CLASS == p_request->bmRequestType_bit.type )
    1a3c:	2a20      	cmp	r2, #32
    1a3e:	d00a      	beq.n	1a56 <process_control_request+0x76>
      if ( TUSB_REQ_TYPE_STANDARD != p_request->bmRequestType_bit.type )
    1a40:	2a00      	cmp	r2, #0
    1a42:	d000      	beq.n	1a46 <process_control_request+0x66>
    1a44:	e19b      	b.n	1d7e <process_control_request+0x39e>
      switch ( p_request->bRequest )
    1a46:	786b      	ldrb	r3, [r5, #1]
    1a48:	2b09      	cmp	r3, #9
    1a4a:	d900      	bls.n	1a4e <process_control_request+0x6e>
    1a4c:	e199      	b.n	1d82 <process_control_request+0x3a2>
    1a4e:	009b      	lsls	r3, r3, #2
    1a50:	4ab2      	ldr	r2, [pc, #712]	; (1d1c <process_control_request+0x33c>)
    1a52:	58d3      	ldr	r3, [r2, r3]
    1a54:	469f      	mov	pc, r3
TU_ATTR_ALWAYS_INLINE static inline uint8_t tu_u16_low (uint16_t ui16) { return TU_U16_LOW(ui16); }
    1a56:	792b      	ldrb	r3, [r5, #4]
        TU_VERIFY(itf < TU_ARRAY_SIZE(_usbd_dev.itf2drv));
    1a58:	2b0f      	cmp	r3, #15
    1a5a:	d900      	bls.n	1a5e <process_control_request+0x7e>
    1a5c:	e18b      	b.n	1d76 <process_control_request+0x396>
        usbd_class_driver_t const * driver = get_driver(_usbd_dev.itf2drv[itf]);
    1a5e:	4ab0      	ldr	r2, [pc, #704]	; (1d20 <process_control_request+0x340>)
    1a60:	18d3      	adds	r3, r2, r3
    1a62:	7adb      	ldrb	r3, [r3, #11]
  if ( usbd_app_driver_get_cb )
    1a64:	4aaf      	ldr	r2, [pc, #700]	; (1d24 <process_control_request+0x344>)
    1a66:	2a00      	cmp	r2, #0
    1a68:	d013      	beq.n	1a92 <process_control_request+0xb2>
    if ( drvid < _app_driver_count ) return &_app_driver[drvid];
    1a6a:	4aad      	ldr	r2, [pc, #692]	; (1d20 <process_control_request+0x340>)
    1a6c:	7912      	ldrb	r2, [r2, #4]
    1a6e:	429a      	cmp	r2, r3
    1a70:	d90d      	bls.n	1a8e <process_control_request+0xae>
    1a72:	005a      	lsls	r2, r3, #1
    1a74:	18d3      	adds	r3, r2, r3
    1a76:	00da      	lsls	r2, r3, #3
    1a78:	4ba9      	ldr	r3, [pc, #676]	; (1d20 <process_control_request+0x340>)
    1a7a:	6819      	ldr	r1, [r3, #0]
    1a7c:	1889      	adds	r1, r1, r2
        TU_VERIFY(driver);
    1a7e:	2900      	cmp	r1, #0
    1a80:	d100      	bne.n	1a84 <process_control_request+0xa4>
    1a82:	e17a      	b.n	1d7a <process_control_request+0x39a>
        return invoke_class_control(rhport, driver, p_request);
    1a84:	002a      	movs	r2, r5
    1a86:	0020      	movs	r0, r4
    1a88:	4ba7      	ldr	r3, [pc, #668]	; (1d28 <process_control_request+0x348>)
    1a8a:	4798      	blx	r3
    1a8c:	e16d      	b.n	1d6a <process_control_request+0x38a>
    drvid -= _app_driver_count;
    1a8e:	1a9b      	subs	r3, r3, r2
    1a90:	b2db      	uxtb	r3, r3
  if (drvid < BUILTIN_DRIVER_COUNT) return &_usbd_driver[drvid];
    1a92:	2b00      	cmp	r3, #0
    1a94:	d105      	bne.n	1aa2 <process_control_request+0xc2>
    1a96:	005a      	lsls	r2, r3, #1
    1a98:	18d3      	adds	r3, r2, r3
    1a9a:	00da      	lsls	r2, r3, #3
    1a9c:	49a3      	ldr	r1, [pc, #652]	; (1d2c <process_control_request+0x34c>)
    1a9e:	1889      	adds	r1, r1, r2
    1aa0:	e7ed      	b.n	1a7e <process_control_request+0x9e>
  return NULL;
    1aa2:	2100      	movs	r1, #0
    1aa4:	e7eb      	b.n	1a7e <process_control_request+0x9e>
          usbd_control_set_request(p_request); // set request since DCD has no access to tud_control_status() API
    1aa6:	0028      	movs	r0, r5
    1aa8:	4ba1      	ldr	r3, [pc, #644]	; (1d30 <process_control_request+0x350>)
    1aaa:	4798      	blx	r3
          dcd_set_address(rhport, (uint8_t) p_request->wValue);
    1aac:	78a9      	ldrb	r1, [r5, #2]
    1aae:	0020      	movs	r0, r4
    1ab0:	4ba0      	ldr	r3, [pc, #640]	; (1d34 <process_control_request+0x354>)
    1ab2:	4798      	blx	r3
          _usbd_dev.addressed = 1;
    1ab4:	4a9a      	ldr	r2, [pc, #616]	; (1d20 <process_control_request+0x340>)
    1ab6:	7a13      	ldrb	r3, [r2, #8]
    1ab8:	2102      	movs	r1, #2
    1aba:	430b      	orrs	r3, r1
    1abc:	7213      	strb	r3, [r2, #8]
  return true;
    1abe:	2001      	movs	r0, #1
        break;
    1ac0:	e153      	b.n	1d6a <process_control_request+0x38a>
          uint8_t cfg_num = _usbd_dev.cfg_num;
    1ac2:	4b97      	ldr	r3, [pc, #604]	; (1d20 <process_control_request+0x340>)
    1ac4:	7a5b      	ldrb	r3, [r3, #9]
    1ac6:	466a      	mov	r2, sp
    1ac8:	3206      	adds	r2, #6
    1aca:	7013      	strb	r3, [r2, #0]
          tud_control_xfer(rhport, p_request, &cfg_num, 1);
    1acc:	2301      	movs	r3, #1
    1ace:	0029      	movs	r1, r5
    1ad0:	0020      	movs	r0, r4
    1ad2:	4c99      	ldr	r4, [pc, #612]	; (1d38 <process_control_request+0x358>)
    1ad4:	47a0      	blx	r4
  return true;
    1ad6:	2001      	movs	r0, #1
        break;
    1ad8:	e147      	b.n	1d6a <process_control_request+0x38a>
          uint8_t const cfg_num = (uint8_t) p_request->wValue;
    1ada:	78ae      	ldrb	r6, [r5, #2]
          if (_usbd_dev.cfg_num != cfg_num)
    1adc:	4b90      	ldr	r3, [pc, #576]	; (1d20 <process_control_request+0x340>)
    1ade:	7a5b      	ldrb	r3, [r3, #9]
    1ae0:	b2db      	uxtb	r3, r3
    1ae2:	429e      	cmp	r6, r3
    1ae4:	d005      	beq.n	1af2 <process_control_request+0x112>
            if ( _usbd_dev.cfg_num )
    1ae6:	4b8e      	ldr	r3, [pc, #568]	; (1d20 <process_control_request+0x340>)
    1ae8:	7a5b      	ldrb	r3, [r3, #9]
    1aea:	2b00      	cmp	r3, #0
    1aec:	d109      	bne.n	1b02 <process_control_request+0x122>
            if ( cfg_num ) TU_ASSERT( process_set_config(rhport, cfg_num) );
    1aee:	2e00      	cmp	r6, #0
    1af0:	d113      	bne.n	1b1a <process_control_request+0x13a>
          _usbd_dev.cfg_num = cfg_num;
    1af2:	4b8b      	ldr	r3, [pc, #556]	; (1d20 <process_control_request+0x340>)
    1af4:	725e      	strb	r6, [r3, #9]
          tud_control_status(rhport, p_request);
    1af6:	0029      	movs	r1, r5
    1af8:	0020      	movs	r0, r4
    1afa:	4b90      	ldr	r3, [pc, #576]	; (1d3c <process_control_request+0x35c>)
    1afc:	4798      	blx	r3
  return true;
    1afe:	2001      	movs	r0, #1
        break;
    1b00:	e133      	b.n	1d6a <process_control_request+0x38a>
              dcd_edpt_close_all(rhport);
    1b02:	0020      	movs	r0, r4
    1b04:	4b8e      	ldr	r3, [pc, #568]	; (1d40 <process_control_request+0x360>)
    1b06:	4798      	blx	r3
              uint8_t const speed = _usbd_dev.speed;
    1b08:	4f85      	ldr	r7, [pc, #532]	; (1d20 <process_control_request+0x340>)
    1b0a:	7abb      	ldrb	r3, [r7, #10]
    1b0c:	4698      	mov	r8, r3
              configuration_reset(rhport);
    1b0e:	0020      	movs	r0, r4
    1b10:	4b8c      	ldr	r3, [pc, #560]	; (1d44 <process_control_request+0x364>)
    1b12:	4798      	blx	r3
              _usbd_dev.speed = speed; // restore speed
    1b14:	4643      	mov	r3, r8
    1b16:	72bb      	strb	r3, [r7, #10]
    1b18:	e7e9      	b.n	1aee <process_control_request+0x10e>
            if ( cfg_num ) TU_ASSERT( process_set_config(rhport, cfg_num) );
    1b1a:	0031      	movs	r1, r6
    1b1c:	0020      	movs	r0, r4
    1b1e:	4b8a      	ldr	r3, [pc, #552]	; (1d48 <process_control_request+0x368>)
    1b20:	4798      	blx	r3
    1b22:	2800      	cmp	r0, #0
    1b24:	d100      	bne.n	1b28 <process_control_request+0x148>
    1b26:	e120      	b.n	1d6a <process_control_request+0x38a>
    1b28:	e7e3      	b.n	1af2 <process_control_request+0x112>
          TU_VERIFY( process_get_descriptor(rhport, p_request) );
    1b2a:	0029      	movs	r1, r5
    1b2c:	0020      	movs	r0, r4
    1b2e:	4b87      	ldr	r3, [pc, #540]	; (1d4c <process_control_request+0x36c>)
    1b30:	4798      	blx	r3
    1b32:	e11a      	b.n	1d6a <process_control_request+0x38a>
          TU_VERIFY(TUSB_REQ_FEATURE_REMOTE_WAKEUP == p_request->wValue);
    1b34:	78aa      	ldrb	r2, [r5, #2]
    1b36:	78eb      	ldrb	r3, [r5, #3]
    1b38:	021b      	lsls	r3, r3, #8
    1b3a:	4313      	orrs	r3, r2
    1b3c:	2b01      	cmp	r3, #1
    1b3e:	d001      	beq.n	1b44 <process_control_request+0x164>
    1b40:	2000      	movs	r0, #0
    1b42:	e112      	b.n	1d6a <process_control_request+0x38a>
          _usbd_dev.remote_wakeup_en = true;
    1b44:	4a76      	ldr	r2, [pc, #472]	; (1d20 <process_control_request+0x340>)
    1b46:	7a11      	ldrb	r1, [r2, #8]
    1b48:	3307      	adds	r3, #7
    1b4a:	430b      	orrs	r3, r1
    1b4c:	7213      	strb	r3, [r2, #8]
          tud_control_status(rhport, p_request);
    1b4e:	0029      	movs	r1, r5
    1b50:	0020      	movs	r0, r4
    1b52:	4b7a      	ldr	r3, [pc, #488]	; (1d3c <process_control_request+0x35c>)
    1b54:	4798      	blx	r3
  return true;
    1b56:	2001      	movs	r0, #1
        break;
    1b58:	e107      	b.n	1d6a <process_control_request+0x38a>
          TU_VERIFY(TUSB_REQ_FEATURE_REMOTE_WAKEUP == p_request->wValue);
    1b5a:	78aa      	ldrb	r2, [r5, #2]
    1b5c:	78eb      	ldrb	r3, [r5, #3]
    1b5e:	021b      	lsls	r3, r3, #8
    1b60:	4313      	orrs	r3, r2
    1b62:	2b01      	cmp	r3, #1
    1b64:	d001      	beq.n	1b6a <process_control_request+0x18a>
    1b66:	2000      	movs	r0, #0
    1b68:	e0ff      	b.n	1d6a <process_control_request+0x38a>
          _usbd_dev.remote_wakeup_en = false;
    1b6a:	4a6d      	ldr	r2, [pc, #436]	; (1d20 <process_control_request+0x340>)
    1b6c:	7a13      	ldrb	r3, [r2, #8]
    1b6e:	2108      	movs	r1, #8
    1b70:	438b      	bics	r3, r1
    1b72:	7213      	strb	r3, [r2, #8]
          tud_control_status(rhport, p_request);
    1b74:	0029      	movs	r1, r5
    1b76:	0020      	movs	r0, r4
    1b78:	4b70      	ldr	r3, [pc, #448]	; (1d3c <process_control_request+0x35c>)
    1b7a:	4798      	blx	r3
  return true;
    1b7c:	2001      	movs	r0, #1
        break;
    1b7e:	e0f4      	b.n	1d6a <process_control_request+0x38a>
          uint16_t status = (uint16_t) ((_usbd_dev.self_powered ? 1u : 0u) | (_usbd_dev.remote_wakeup_en ? 2u : 0u));
    1b80:	4b67      	ldr	r3, [pc, #412]	; (1d20 <process_control_request+0x340>)
    1b82:	7a1a      	ldrb	r2, [r3, #8]
    1b84:	0693      	lsls	r3, r2, #26
    1b86:	d50e      	bpl.n	1ba6 <process_control_request+0x1c6>
    1b88:	2301      	movs	r3, #1
    1b8a:	0712      	lsls	r2, r2, #28
    1b8c:	d40d      	bmi.n	1baa <process_control_request+0x1ca>
    1b8e:	2200      	movs	r2, #0
    1b90:	4313      	orrs	r3, r2
    1b92:	466a      	mov	r2, sp
    1b94:	3206      	adds	r2, #6
    1b96:	8013      	strh	r3, [r2, #0]
          tud_control_xfer(rhport, p_request, &status, 2);
    1b98:	2302      	movs	r3, #2
    1b9a:	0029      	movs	r1, r5
    1b9c:	0020      	movs	r0, r4
    1b9e:	4c66      	ldr	r4, [pc, #408]	; (1d38 <process_control_request+0x358>)
    1ba0:	47a0      	blx	r4
  return true;
    1ba2:	2001      	movs	r0, #1
        break;
    1ba4:	e0e1      	b.n	1d6a <process_control_request+0x38a>
          uint16_t status = (uint16_t) ((_usbd_dev.self_powered ? 1u : 0u) | (_usbd_dev.remote_wakeup_en ? 2u : 0u));
    1ba6:	2300      	movs	r3, #0
    1ba8:	e7ef      	b.n	1b8a <process_control_request+0x1aa>
    1baa:	2202      	movs	r2, #2
    1bac:	e7f0      	b.n	1b90 <process_control_request+0x1b0>
    1bae:	792b      	ldrb	r3, [r5, #4]
      TU_VERIFY(itf < TU_ARRAY_SIZE(_usbd_dev.itf2drv));
    1bb0:	2b0f      	cmp	r3, #15
    1bb2:	d900      	bls.n	1bb6 <process_control_request+0x1d6>
    1bb4:	e0e7      	b.n	1d86 <process_control_request+0x3a6>
      usbd_class_driver_t const * driver = get_driver(_usbd_dev.itf2drv[itf]);
    1bb6:	4a5a      	ldr	r2, [pc, #360]	; (1d20 <process_control_request+0x340>)
    1bb8:	18d3      	adds	r3, r2, r3
    1bba:	7adb      	ldrb	r3, [r3, #11]
  if ( usbd_app_driver_get_cb )
    1bbc:	4a59      	ldr	r2, [pc, #356]	; (1d24 <process_control_request+0x344>)
    1bbe:	2a00      	cmp	r2, #0
    1bc0:	d02b      	beq.n	1c1a <process_control_request+0x23a>
    if ( drvid < _app_driver_count ) return &_app_driver[drvid];
    1bc2:	4a57      	ldr	r2, [pc, #348]	; (1d20 <process_control_request+0x340>)
    1bc4:	7912      	ldrb	r2, [r2, #4]
    1bc6:	4293      	cmp	r3, r2
    1bc8:	d225      	bcs.n	1c16 <process_control_request+0x236>
    1bca:	005a      	lsls	r2, r3, #1
    1bcc:	18d3      	adds	r3, r2, r3
    1bce:	00da      	lsls	r2, r3, #3
    1bd0:	4b53      	ldr	r3, [pc, #332]	; (1d20 <process_control_request+0x340>)
    1bd2:	6819      	ldr	r1, [r3, #0]
    1bd4:	1889      	adds	r1, r1, r2
      TU_VERIFY(driver);
    1bd6:	2900      	cmp	r1, #0
    1bd8:	d100      	bne.n	1bdc <process_control_request+0x1fc>
    1bda:	e0d6      	b.n	1d8a <process_control_request+0x3aa>
      if ( !invoke_class_control(rhport, driver, p_request) )
    1bdc:	002a      	movs	r2, r5
    1bde:	0020      	movs	r0, r4
    1be0:	4b51      	ldr	r3, [pc, #324]	; (1d28 <process_control_request+0x348>)
    1be2:	4798      	blx	r3
    1be4:	2800      	cmp	r0, #0
    1be6:	d000      	beq.n	1bea <process_control_request+0x20a>
    1be8:	e0bf      	b.n	1d6a <process_control_request+0x38a>
        TU_VERIFY(TUSB_REQ_TYPE_STANDARD == p_request->bmRequestType_bit.type);
    1bea:	782b      	ldrb	r3, [r5, #0]
    1bec:	2260      	movs	r2, #96	; 0x60
    1bee:	421a      	tst	r2, r3
    1bf0:	d000      	beq.n	1bf4 <process_control_request+0x214>
    1bf2:	e0ba      	b.n	1d6a <process_control_request+0x38a>
        switch(p_request->bRequest)
    1bf4:	786b      	ldrb	r3, [r5, #1]
    1bf6:	3b0a      	subs	r3, #10
    1bf8:	b2db      	uxtb	r3, r3
    1bfa:	2b01      	cmp	r3, #1
    1bfc:	d900      	bls.n	1c00 <process_control_request+0x220>
    1bfe:	e0b4      	b.n	1d6a <process_control_request+0x38a>
            usbd_control_set_complete_callback(NULL);
    1c00:	4b44      	ldr	r3, [pc, #272]	; (1d14 <process_control_request+0x334>)
    1c02:	4798      	blx	r3
            if (TUSB_REQ_GET_INTERFACE == p_request->bRequest)
    1c04:	786b      	ldrb	r3, [r5, #1]
    1c06:	2b0a      	cmp	r3, #10
    1c08:	d011      	beq.n	1c2e <process_control_request+0x24e>
              tud_control_status(rhport, p_request);
    1c0a:	0029      	movs	r1, r5
    1c0c:	0020      	movs	r0, r4
    1c0e:	4b4b      	ldr	r3, [pc, #300]	; (1d3c <process_control_request+0x35c>)
    1c10:	4798      	blx	r3
  return true;
    1c12:	2001      	movs	r0, #1
    1c14:	e0a9      	b.n	1d6a <process_control_request+0x38a>
    drvid -= _app_driver_count;
    1c16:	1a9b      	subs	r3, r3, r2
    1c18:	b2db      	uxtb	r3, r3
  if (drvid < BUILTIN_DRIVER_COUNT) return &_usbd_driver[drvid];
    1c1a:	2b00      	cmp	r3, #0
    1c1c:	d105      	bne.n	1c2a <process_control_request+0x24a>
    1c1e:	005a      	lsls	r2, r3, #1
    1c20:	18d3      	adds	r3, r2, r3
    1c22:	00da      	lsls	r2, r3, #3
    1c24:	4941      	ldr	r1, [pc, #260]	; (1d2c <process_control_request+0x34c>)
    1c26:	1889      	adds	r1, r1, r2
    1c28:	e7d5      	b.n	1bd6 <process_control_request+0x1f6>
  return NULL;
    1c2a:	2100      	movs	r1, #0
    1c2c:	e7d3      	b.n	1bd6 <process_control_request+0x1f6>
              uint8_t alternate = 0;
    1c2e:	466b      	mov	r3, sp
    1c30:	1d9a      	adds	r2, r3, #6
    1c32:	2300      	movs	r3, #0
    1c34:	7013      	strb	r3, [r2, #0]
              tud_control_xfer(rhport, p_request, &alternate, 1);
    1c36:	3301      	adds	r3, #1
    1c38:	0029      	movs	r1, r5
    1c3a:	0020      	movs	r0, r4
    1c3c:	4c3e      	ldr	r4, [pc, #248]	; (1d38 <process_control_request+0x358>)
    1c3e:	47a0      	blx	r4
  return true;
    1c40:	2001      	movs	r0, #1
    1c42:	e092      	b.n	1d6a <process_control_request+0x38a>
      uint8_t const ep_addr = tu_u16_low(p_request->wIndex);
    1c44:	7929      	ldrb	r1, [r5, #4]
    1c46:	796b      	ldrb	r3, [r5, #5]
    1c48:	021b      	lsls	r3, r3, #8
    1c4a:	430b      	orrs	r3, r1
    1c4c:	b2d9      	uxtb	r1, r3
  return (uint8_t)(addr & (~TUSB_DIR_IN_MASK));
    1c4e:	207f      	movs	r0, #127	; 0x7f
    1c50:	4008      	ands	r0, r1
  return (addr & TUSB_DIR_IN_MASK) ? TUSB_DIR_IN : TUSB_DIR_OUT;
    1c52:	09cb      	lsrs	r3, r1, #7
      TU_ASSERT(ep_num < TU_ARRAY_SIZE(_usbd_dev.ep2drv) );
    1c54:	2807      	cmp	r0, #7
    1c56:	d900      	bls.n	1c5a <process_control_request+0x27a>
    1c58:	e099      	b.n	1d8e <process_control_request+0x3ae>
      usbd_class_driver_t const * driver = get_driver(_usbd_dev.ep2drv[ep_num][ep_dir]);
    1c5a:	0040      	lsls	r0, r0, #1
    1c5c:	4e30      	ldr	r6, [pc, #192]	; (1d20 <process_control_request+0x340>)
    1c5e:	1830      	adds	r0, r6, r0
    1c60:	18c3      	adds	r3, r0, r3
    1c62:	7edb      	ldrb	r3, [r3, #27]
  if ( usbd_app_driver_get_cb )
    1c64:	482f      	ldr	r0, [pc, #188]	; (1d24 <process_control_request+0x344>)
    1c66:	2800      	cmp	r0, #0
    1c68:	d014      	beq.n	1c94 <process_control_request+0x2b4>
    if ( drvid < _app_driver_count ) return &_app_driver[drvid];
    1c6a:	7930      	ldrb	r0, [r6, #4]
    1c6c:	4283      	cmp	r3, r0
    1c6e:	d20f      	bcs.n	1c90 <process_control_request+0x2b0>
    1c70:	0058      	lsls	r0, r3, #1
    1c72:	18c3      	adds	r3, r0, r3
    1c74:	00d8      	lsls	r0, r3, #3
    1c76:	6836      	ldr	r6, [r6, #0]
    1c78:	1836      	adds	r6, r6, r0
      if ( TUSB_REQ_TYPE_STANDARD != p_request->bmRequestType_bit.type )
    1c7a:	2a00      	cmp	r2, #0
    1c7c:	d014      	beq.n	1ca8 <process_control_request+0x2c8>
        TU_VERIFY(driver);
    1c7e:	2e00      	cmp	r6, #0
    1c80:	d100      	bne.n	1c84 <process_control_request+0x2a4>
    1c82:	e086      	b.n	1d92 <process_control_request+0x3b2>
        return invoke_class_control(rhport, driver, p_request);
    1c84:	002a      	movs	r2, r5
    1c86:	0031      	movs	r1, r6
    1c88:	0020      	movs	r0, r4
    1c8a:	4b27      	ldr	r3, [pc, #156]	; (1d28 <process_control_request+0x348>)
    1c8c:	4798      	blx	r3
    1c8e:	e06c      	b.n	1d6a <process_control_request+0x38a>
    drvid -= _app_driver_count;
    1c90:	1a1b      	subs	r3, r3, r0
    1c92:	b2db      	uxtb	r3, r3
  if (drvid < BUILTIN_DRIVER_COUNT) return &_usbd_driver[drvid];
    1c94:	2b00      	cmp	r3, #0
    1c96:	d105      	bne.n	1ca4 <process_control_request+0x2c4>
    1c98:	0058      	lsls	r0, r3, #1
    1c9a:	18c3      	adds	r3, r0, r3
    1c9c:	00d8      	lsls	r0, r3, #3
    1c9e:	4e23      	ldr	r6, [pc, #140]	; (1d2c <process_control_request+0x34c>)
    1ca0:	1836      	adds	r6, r6, r0
    1ca2:	e7ea      	b.n	1c7a <process_control_request+0x29a>
  return NULL;
    1ca4:	2600      	movs	r6, #0
    1ca6:	e7e8      	b.n	1c7a <process_control_request+0x29a>
        switch ( p_request->bRequest )
    1ca8:	786b      	ldrb	r3, [r5, #1]
    1caa:	2b01      	cmp	r3, #1
    1cac:	d012      	beq.n	1cd4 <process_control_request+0x2f4>
    1cae:	2b00      	cmp	r3, #0
    1cb0:	d003      	beq.n	1cba <process_control_request+0x2da>
    1cb2:	2b03      	cmp	r3, #3
    1cb4:	d00e      	beq.n	1cd4 <process_control_request+0x2f4>
          default: TU_BREAKPOINT(); return false;
    1cb6:	2000      	movs	r0, #0
    1cb8:	e057      	b.n	1d6a <process_control_request+0x38a>
            uint16_t status = usbd_edpt_stalled(rhport, ep_addr) ? 0x0001 : 0x0000;
    1cba:	0020      	movs	r0, r4
    1cbc:	4b24      	ldr	r3, [pc, #144]	; (1d50 <process_control_request+0x370>)
    1cbe:	4798      	blx	r3
    1cc0:	466b      	mov	r3, sp
    1cc2:	1d9a      	adds	r2, r3, #6
    1cc4:	8010      	strh	r0, [r2, #0]
            tud_control_xfer(rhport, p_request, &status, 2);
    1cc6:	2302      	movs	r3, #2
    1cc8:	0029      	movs	r1, r5
    1cca:	0020      	movs	r0, r4
    1ccc:	4c1a      	ldr	r4, [pc, #104]	; (1d38 <process_control_request+0x358>)
    1cce:	47a0      	blx	r4
  return true;
    1cd0:	2001      	movs	r0, #1
          break;
    1cd2:	e04a      	b.n	1d6a <process_control_request+0x38a>
            if ( TUSB_REQ_FEATURE_EDPT_HALT == p_request->wValue )
    1cd4:	78a8      	ldrb	r0, [r5, #2]
    1cd6:	78ea      	ldrb	r2, [r5, #3]
    1cd8:	0212      	lsls	r2, r2, #8
    1cda:	4302      	orrs	r2, r0
    1cdc:	d104      	bne.n	1ce8 <process_control_request+0x308>
              if ( TUSB_REQ_CLEAR_FEATURE ==  p_request->bRequest )
    1cde:	2b01      	cmp	r3, #1
    1ce0:	d013      	beq.n	1d0a <process_control_request+0x32a>
                usbd_edpt_stall(rhport, ep_addr);
    1ce2:	0020      	movs	r0, r4
    1ce4:	4b1b      	ldr	r3, [pc, #108]	; (1d54 <process_control_request+0x374>)
    1ce6:	4798      	blx	r3
            if (driver)
    1ce8:	2e00      	cmp	r6, #0
    1cea:	d054      	beq.n	1d96 <process_control_request+0x3b6>
              (void) invoke_class_control(rhport, driver, p_request);
    1cec:	002a      	movs	r2, r5
    1cee:	0031      	movs	r1, r6
    1cf0:	0020      	movs	r0, r4
    1cf2:	4b0d      	ldr	r3, [pc, #52]	; (1d28 <process_control_request+0x348>)
    1cf4:	4798      	blx	r3
              usbd_control_set_complete_callback(NULL);
    1cf6:	2000      	movs	r0, #0
    1cf8:	4b06      	ldr	r3, [pc, #24]	; (1d14 <process_control_request+0x334>)
    1cfa:	4798      	blx	r3
              if ( !_usbd_dev.ep_status[0][TUSB_DIR_IN].busy ) tud_control_status(rhport, p_request);
    1cfc:	232c      	movs	r3, #44	; 0x2c
    1cfe:	4a08      	ldr	r2, [pc, #32]	; (1d20 <process_control_request+0x340>)
    1d00:	5cd3      	ldrb	r3, [r2, r3]
    1d02:	07db      	lsls	r3, r3, #31
    1d04:	d52a      	bpl.n	1d5c <process_control_request+0x37c>
  return true;
    1d06:	2001      	movs	r0, #1
    1d08:	e02f      	b.n	1d6a <process_control_request+0x38a>
                usbd_edpt_clear_stall(rhport, ep_addr);
    1d0a:	0020      	movs	r0, r4
    1d0c:	4b12      	ldr	r3, [pc, #72]	; (1d58 <process_control_request+0x378>)
    1d0e:	4798      	blx	r3
    1d10:	e7ea      	b.n	1ce8 <process_control_request+0x308>
    1d12:	46c0      	nop			; (mov r8, r8)
    1d14:	00002085 	.word	0x00002085
    1d18:	00000000 	.word	0x00000000
    1d1c:	00003630 	.word	0x00003630
    1d20:	200007e4 	.word	0x200007e4
    1d24:	00000000 	.word	0x00000000
    1d28:	0000121d 	.word	0x0000121d
    1d2c:	0000367c 	.word	0x0000367c
    1d30:	00002091 	.word	0x00002091
    1d34:	000024ad 	.word	0x000024ad
    1d38:	00001fe9 	.word	0x00001fe9
    1d3c:	00001fa5 	.word	0x00001fa5
    1d40:	000023ed 	.word	0x000023ed
    1d44:	00001181 	.word	0x00001181
    1d48:	0000123d 	.word	0x0000123d
    1d4c:	000013c5 	.word	0x000013c5
    1d50:	000019c5 	.word	0x000019c5
    1d54:	0000192d 	.word	0x0000192d
    1d58:	00001979 	.word	0x00001979
              if ( !_usbd_dev.ep_status[0][TUSB_DIR_IN].busy ) tud_control_status(rhport, p_request);
    1d5c:	0029      	movs	r1, r5
    1d5e:	0020      	movs	r0, r4
    1d60:	4b0e      	ldr	r3, [pc, #56]	; (1d9c <process_control_request+0x3bc>)
    1d62:	4798      	blx	r3
  return true;
    1d64:	2001      	movs	r0, #1
    1d66:	e000      	b.n	1d6a <process_control_request+0x38a>
  TU_ASSERT(p_request->bmRequestType_bit.type < TUSB_REQ_TYPE_INVALID);
    1d68:	2000      	movs	r0, #0
}
    1d6a:	b002      	add	sp, #8
    1d6c:	bc04      	pop	{r2}
    1d6e:	4690      	mov	r8, r2
    1d70:	bdf0      	pop	{r4, r5, r6, r7, pc}
    TU_VERIFY(tud_vendor_control_xfer_cb);
    1d72:	2000      	movs	r0, #0
    1d74:	e7f9      	b.n	1d6a <process_control_request+0x38a>
        TU_VERIFY(itf < TU_ARRAY_SIZE(_usbd_dev.itf2drv));
    1d76:	2000      	movs	r0, #0
    1d78:	e7f7      	b.n	1d6a <process_control_request+0x38a>
        TU_VERIFY(driver);
    1d7a:	2000      	movs	r0, #0
    1d7c:	e7f5      	b.n	1d6a <process_control_request+0x38a>
        return false;
    1d7e:	2000      	movs	r0, #0
    1d80:	e7f3      	b.n	1d6a <process_control_request+0x38a>
        default: TU_BREAKPOINT(); return false;
    1d82:	2000      	movs	r0, #0
    1d84:	e7f1      	b.n	1d6a <process_control_request+0x38a>
      TU_VERIFY(itf < TU_ARRAY_SIZE(_usbd_dev.itf2drv));
    1d86:	2000      	movs	r0, #0
    1d88:	e7ef      	b.n	1d6a <process_control_request+0x38a>
      TU_VERIFY(driver);
    1d8a:	2000      	movs	r0, #0
    1d8c:	e7ed      	b.n	1d6a <process_control_request+0x38a>
      TU_ASSERT(ep_num < TU_ARRAY_SIZE(_usbd_dev.ep2drv) );
    1d8e:	2000      	movs	r0, #0
    1d90:	e7eb      	b.n	1d6a <process_control_request+0x38a>
        TU_VERIFY(driver);
    1d92:	2000      	movs	r0, #0
    1d94:	e7e9      	b.n	1d6a <process_control_request+0x38a>
  return true;
    1d96:	2001      	movs	r0, #1
    1d98:	e7e7      	b.n	1d6a <process_control_request+0x38a>
    1d9a:	46c0      	nop			; (mov r8, r8)
    1d9c:	00001fa5 	.word	0x00001fa5

00001da0 <tud_task_ext>:
{
    1da0:	b530      	push	{r4, r5, lr}
    1da2:	b085      	sub	sp, #20
  if ( !tusb_inited() ) return;
    1da4:	4b5b      	ldr	r3, [pc, #364]	; (1f14 <tud_task_ext+0x174>)
    1da6:	4798      	blx	r3
    1da8:	2800      	cmp	r0, #0
    1daa:	d108      	bne.n	1dbe <tud_task_ext+0x1e>
}
    1dac:	b005      	add	sp, #20
    1dae:	bd30      	pop	{r4, r5, pc}
        usbd_reset(event.rhport);
    1db0:	ac01      	add	r4, sp, #4
    1db2:	7820      	ldrb	r0, [r4, #0]
    1db4:	4b58      	ldr	r3, [pc, #352]	; (1f18 <tud_task_ext+0x178>)
    1db6:	4798      	blx	r3
        _usbd_dev.speed = event.bus_reset.speed;
    1db8:	7922      	ldrb	r2, [r4, #4]
    1dba:	4b58      	ldr	r3, [pc, #352]	; (1f1c <tud_task_ext+0x17c>)
    1dbc:	729a      	strb	r2, [r3, #10]
    if ( !osal_queue_receive(_usbd_q, &event, timeout_ms) ) return;
    1dbe:	4b57      	ldr	r3, [pc, #348]	; (1f1c <tud_task_ext+0x17c>)
    1dc0:	6bdd      	ldr	r5, [r3, #60]	; 0x3c
  qhdl->interrupt_set(false);
    1dc2:	002c      	movs	r4, r5
    1dc4:	cc08      	ldmia	r4!, {r3}
    1dc6:	2000      	movs	r0, #0
    1dc8:	4798      	blx	r3
  bool success = tu_fifo_read(&qhdl->ff, data);
    1dca:	a901      	add	r1, sp, #4
    1dcc:	0020      	movs	r0, r4
    1dce:	4b54      	ldr	r3, [pc, #336]	; (1f20 <tud_task_ext+0x180>)
    1dd0:	4798      	blx	r3
    1dd2:	0004      	movs	r4, r0
  qhdl->interrupt_set(true);
    1dd4:	682b      	ldr	r3, [r5, #0]
    1dd6:	2001      	movs	r0, #1
    1dd8:	4798      	blx	r3
    1dda:	2c00      	cmp	r4, #0
    1ddc:	d0e6      	beq.n	1dac <tud_task_ext+0xc>
    switch ( event.event_id )
    1dde:	ab01      	add	r3, sp, #4
    1de0:	785b      	ldrb	r3, [r3, #1]
    1de2:	2b08      	cmp	r3, #8
    1de4:	d8eb      	bhi.n	1dbe <tud_task_ext+0x1e>
    1de6:	009b      	lsls	r3, r3, #2
    1de8:	4a4e      	ldr	r2, [pc, #312]	; (1f24 <tud_task_ext+0x184>)
    1dea:	58d3      	ldr	r3, [r2, r3]
    1dec:	469f      	mov	pc, r3
        usbd_reset(event.rhport);
    1dee:	ab01      	add	r3, sp, #4
    1df0:	7818      	ldrb	r0, [r3, #0]
    1df2:	4b49      	ldr	r3, [pc, #292]	; (1f18 <tud_task_ext+0x178>)
    1df4:	4798      	blx	r3
        if (tud_umount_cb) tud_umount_cb();
    1df6:	4b4c      	ldr	r3, [pc, #304]	; (1f28 <tud_task_ext+0x188>)
    1df8:	2b00      	cmp	r3, #0
    1dfa:	d0e0      	beq.n	1dbe <tud_task_ext+0x1e>
    1dfc:	4798      	blx	r3
    1dfe:	e7de      	b.n	1dbe <tud_task_ext+0x1e>
        _usbd_dev.connected = 1;
    1e00:	4b46      	ldr	r3, [pc, #280]	; (1f1c <tud_task_ext+0x17c>)
    1e02:	7a1a      	ldrb	r2, [r3, #8]
    1e04:	2401      	movs	r4, #1
    1e06:	2101      	movs	r1, #1
    1e08:	430a      	orrs	r2, r1
    1e0a:	721a      	strb	r2, [r3, #8]
        _usbd_dev.ep_status[0][TUSB_DIR_OUT].busy = false;
    1e0c:	222b      	movs	r2, #43	; 0x2b
    1e0e:	5c99      	ldrb	r1, [r3, r2]
    1e10:	43a1      	bics	r1, r4
    1e12:	5499      	strb	r1, [r3, r2]
        _usbd_dev.ep_status[0][TUSB_DIR_OUT].claimed = 0;
    1e14:	5c99      	ldrb	r1, [r3, r2]
    1e16:	2004      	movs	r0, #4
    1e18:	4381      	bics	r1, r0
    1e1a:	5499      	strb	r1, [r3, r2]
        _usbd_dev.ep_status[0][TUSB_DIR_IN ].busy = false;
    1e1c:	3201      	adds	r2, #1
    1e1e:	5c99      	ldrb	r1, [r3, r2]
    1e20:	43a1      	bics	r1, r4
    1e22:	5499      	strb	r1, [r3, r2]
        _usbd_dev.ep_status[0][TUSB_DIR_IN ].claimed = 0;
    1e24:	5c99      	ldrb	r1, [r3, r2]
    1e26:	4381      	bics	r1, r0
    1e28:	5499      	strb	r1, [r3, r2]
        if ( !process_control_request(event.rhport, &event.setup_received) )
    1e2a:	ab01      	add	r3, sp, #4
    1e2c:	7818      	ldrb	r0, [r3, #0]
    1e2e:	a902      	add	r1, sp, #8
    1e30:	4b3e      	ldr	r3, [pc, #248]	; (1f2c <tud_task_ext+0x18c>)
    1e32:	4798      	blx	r3
    1e34:	2800      	cmp	r0, #0
    1e36:	d1c2      	bne.n	1dbe <tud_task_ext+0x1e>
          dcd_edpt_stall(event.rhport, 0);
    1e38:	ad01      	add	r5, sp, #4
    1e3a:	7828      	ldrb	r0, [r5, #0]
    1e3c:	2100      	movs	r1, #0
    1e3e:	4c3c      	ldr	r4, [pc, #240]	; (1f30 <tud_task_ext+0x190>)
    1e40:	47a0      	blx	r4
          dcd_edpt_stall(event.rhport, 0 | TUSB_DIR_IN_MASK);
    1e42:	7828      	ldrb	r0, [r5, #0]
    1e44:	2180      	movs	r1, #128	; 0x80
    1e46:	47a0      	blx	r4
    1e48:	e7b9      	b.n	1dbe <tud_task_ext+0x1e>
        uint8_t const ep_addr = event.xfer_complete.ep_addr;
    1e4a:	ab01      	add	r3, sp, #4
    1e4c:	7919      	ldrb	r1, [r3, #4]
  return (uint8_t)(addr & (~TUSB_DIR_IN_MASK));
    1e4e:	227f      	movs	r2, #127	; 0x7f
    1e50:	400a      	ands	r2, r1
  return (addr & TUSB_DIR_IN_MASK) ? TUSB_DIR_IN : TUSB_DIR_OUT;
    1e52:	09cc      	lsrs	r4, r1, #7
        _usbd_dev.ep_status[epnum][ep_dir].busy = false;
    1e54:	0050      	lsls	r0, r2, #1
    1e56:	4b31      	ldr	r3, [pc, #196]	; (1f1c <tud_task_ext+0x17c>)
    1e58:	181b      	adds	r3, r3, r0
    1e5a:	191b      	adds	r3, r3, r4
    1e5c:	3328      	adds	r3, #40	; 0x28
    1e5e:	78d8      	ldrb	r0, [r3, #3]
    1e60:	2501      	movs	r5, #1
    1e62:	43a8      	bics	r0, r5
    1e64:	70d8      	strb	r0, [r3, #3]
        _usbd_dev.ep_status[epnum][ep_dir].claimed = 0;
    1e66:	78d8      	ldrb	r0, [r3, #3]
    1e68:	3503      	adds	r5, #3
    1e6a:	43a8      	bics	r0, r5
    1e6c:	70d8      	strb	r0, [r3, #3]
        if ( 0 == epnum )
    1e6e:	2a00      	cmp	r2, #0
    1e70:	d012      	beq.n	1e98 <tud_task_ext+0xf8>
          usbd_class_driver_t const * driver = get_driver( _usbd_dev.ep2drv[epnum][ep_dir] );
    1e72:	0052      	lsls	r2, r2, #1
    1e74:	4b29      	ldr	r3, [pc, #164]	; (1f1c <tud_task_ext+0x17c>)
    1e76:	189a      	adds	r2, r3, r2
    1e78:	1912      	adds	r2, r2, r4
    1e7a:	7ed3      	ldrb	r3, [r2, #27]
  if ( usbd_app_driver_get_cb )
    1e7c:	4a2d      	ldr	r2, [pc, #180]	; (1f34 <tud_task_ext+0x194>)
    1e7e:	2a00      	cmp	r2, #0
    1e80:	d013      	beq.n	1eaa <tud_task_ext+0x10a>
    if ( drvid < _app_driver_count ) return &_app_driver[drvid];
    1e82:	4a26      	ldr	r2, [pc, #152]	; (1f1c <tud_task_ext+0x17c>)
    1e84:	7912      	ldrb	r2, [r2, #4]
    1e86:	4293      	cmp	r3, r2
    1e88:	d20d      	bcs.n	1ea6 <tud_task_ext+0x106>
    1e8a:	005a      	lsls	r2, r3, #1
    1e8c:	18d3      	adds	r3, r2, r3
    1e8e:	00da      	lsls	r2, r3, #3
    1e90:	4b22      	ldr	r3, [pc, #136]	; (1f1c <tud_task_ext+0x17c>)
    1e92:	681b      	ldr	r3, [r3, #0]
    1e94:	189b      	adds	r3, r3, r2
    1e96:	e00f      	b.n	1eb8 <tud_task_ext+0x118>
          usbd_control_xfer_cb(event.rhport, ep_addr, (xfer_result_t)event.xfer_complete.result, event.xfer_complete.len);
    1e98:	a801      	add	r0, sp, #4
    1e9a:	7942      	ldrb	r2, [r0, #5]
    1e9c:	9b03      	ldr	r3, [sp, #12]
    1e9e:	7800      	ldrb	r0, [r0, #0]
    1ea0:	4c25      	ldr	r4, [pc, #148]	; (1f38 <tud_task_ext+0x198>)
    1ea2:	47a0      	blx	r4
    1ea4:	e78b      	b.n	1dbe <tud_task_ext+0x1e>
    drvid -= _app_driver_count;
    1ea6:	1a9b      	subs	r3, r3, r2
    1ea8:	b2db      	uxtb	r3, r3
  if (drvid < BUILTIN_DRIVER_COUNT) return &_usbd_driver[drvid];
    1eaa:	2b00      	cmp	r3, #0
    1eac:	d10e      	bne.n	1ecc <tud_task_ext+0x12c>
    1eae:	005a      	lsls	r2, r3, #1
    1eb0:	18d3      	adds	r3, r2, r3
    1eb2:	00da      	lsls	r2, r3, #3
    1eb4:	4b21      	ldr	r3, [pc, #132]	; (1f3c <tud_task_ext+0x19c>)
    1eb6:	189b      	adds	r3, r3, r2
          TU_ASSERT(driver, );
    1eb8:	2b00      	cmp	r3, #0
    1eba:	d100      	bne.n	1ebe <tud_task_ext+0x11e>
    1ebc:	e776      	b.n	1dac <tud_task_ext+0xc>
          driver->xfer_cb(event.rhport, ep_addr, (xfer_result_t)event.xfer_complete.result, event.xfer_complete.len);
    1ebe:	691c      	ldr	r4, [r3, #16]
    1ec0:	a801      	add	r0, sp, #4
    1ec2:	7942      	ldrb	r2, [r0, #5]
    1ec4:	9b03      	ldr	r3, [sp, #12]
    1ec6:	7800      	ldrb	r0, [r0, #0]
    1ec8:	47a0      	blx	r4
    1eca:	e778      	b.n	1dbe <tud_task_ext+0x1e>
  return NULL;
    1ecc:	2300      	movs	r3, #0
    1ece:	e7f3      	b.n	1eb8 <tud_task_ext+0x118>
        if ( _usbd_dev.connected )
    1ed0:	4b12      	ldr	r3, [pc, #72]	; (1f1c <tud_task_ext+0x17c>)
    1ed2:	7a1b      	ldrb	r3, [r3, #8]
    1ed4:	07db      	lsls	r3, r3, #31
    1ed6:	d400      	bmi.n	1eda <tud_task_ext+0x13a>
    1ed8:	e771      	b.n	1dbe <tud_task_ext+0x1e>
          if (tud_suspend_cb) tud_suspend_cb(_usbd_dev.remote_wakeup_en);
    1eda:	4b19      	ldr	r3, [pc, #100]	; (1f40 <tud_task_ext+0x1a0>)
    1edc:	2b00      	cmp	r3, #0
    1ede:	d100      	bne.n	1ee2 <tud_task_ext+0x142>
    1ee0:	e76d      	b.n	1dbe <tud_task_ext+0x1e>
    1ee2:	4b0e      	ldr	r3, [pc, #56]	; (1f1c <tud_task_ext+0x17c>)
    1ee4:	7a18      	ldrb	r0, [r3, #8]
    1ee6:	0700      	lsls	r0, r0, #28
    1ee8:	0fc0      	lsrs	r0, r0, #31
    1eea:	4b15      	ldr	r3, [pc, #84]	; (1f40 <tud_task_ext+0x1a0>)
    1eec:	4798      	blx	r3
    1eee:	e766      	b.n	1dbe <tud_task_ext+0x1e>
        if ( _usbd_dev.connected )
    1ef0:	4b0a      	ldr	r3, [pc, #40]	; (1f1c <tud_task_ext+0x17c>)
    1ef2:	7a1b      	ldrb	r3, [r3, #8]
    1ef4:	07db      	lsls	r3, r3, #31
    1ef6:	d400      	bmi.n	1efa <tud_task_ext+0x15a>
    1ef8:	e761      	b.n	1dbe <tud_task_ext+0x1e>
          if (tud_resume_cb) tud_resume_cb();
    1efa:	4b12      	ldr	r3, [pc, #72]	; (1f44 <tud_task_ext+0x1a4>)
    1efc:	2b00      	cmp	r3, #0
    1efe:	d100      	bne.n	1f02 <tud_task_ext+0x162>
    1f00:	e75d      	b.n	1dbe <tud_task_ext+0x1e>
    1f02:	4798      	blx	r3
    1f04:	e75b      	b.n	1dbe <tud_task_ext+0x1e>
        if ( event.func_call.func ) event.func_call.func(event.func_call.param);
    1f06:	9b02      	ldr	r3, [sp, #8]
    1f08:	2b00      	cmp	r3, #0
    1f0a:	d100      	bne.n	1f0e <tud_task_ext+0x16e>
    1f0c:	e757      	b.n	1dbe <tud_task_ext+0x1e>
    1f0e:	9803      	ldr	r0, [sp, #12]
    1f10:	4798      	blx	r3
  {
    1f12:	e754      	b.n	1dbe <tud_task_ext+0x1e>
    1f14:	00002e91 	.word	0x00002e91
    1f18:	00001209 	.word	0x00001209
    1f1c:	200007e4 	.word	0x200007e4
    1f20:	000010b5 	.word	0x000010b5
    1f24:	00003658 	.word	0x00003658
    1f28:	00000000 	.word	0x00000000
    1f2c:	000019e1 	.word	0x000019e1
    1f30:	000024cd 	.word	0x000024cd
    1f34:	00000000 	.word	0x00000000
    1f38:	000020b5 	.word	0x000020b5
    1f3c:	0000367c 	.word	0x0000367c
	...

00001f48 <_data_stage_xact>:

// Queue a transaction in Data Stage
// Each transaction has up to Endpoint0's max packet size.
// This function can also transfer an zero-length packet
static bool _data_stage_xact(uint8_t rhport)
{
    1f48:	b570      	push	{r4, r5, r6, lr}
    1f4a:	0004      	movs	r4, r0
  uint16_t const xact_len = tu_min16(_ctrl_xfer.data_len - _ctrl_xfer.total_xferred, CFG_TUD_ENDPOINT0_SIZE);
    1f4c:	4b12      	ldr	r3, [pc, #72]	; (1f98 <_data_stage_xact+0x50>)
    1f4e:	3340      	adds	r3, #64	; 0x40
    1f50:	8999      	ldrh	r1, [r3, #12]
    1f52:	89db      	ldrh	r3, [r3, #14]
    1f54:	1ac9      	subs	r1, r1, r3
    1f56:	b289      	uxth	r1, r1
TU_ATTR_ALWAYS_INLINE static inline uint16_t tu_min16 (uint16_t x, uint16_t y) { return (x < y) ? x : y; }
    1f58:	1c0d      	adds	r5, r1, #0
    1f5a:	2940      	cmp	r1, #64	; 0x40
    1f5c:	d900      	bls.n	1f60 <_data_stage_xact+0x18>
    1f5e:	2540      	movs	r5, #64	; 0x40
    1f60:	b2ad      	uxth	r5, r5

  uint8_t ep_addr = EDPT_CTRL_OUT;

  if ( _ctrl_xfer.request.bmRequestType_bit.direction == TUSB_DIR_IN )
    1f62:	2340      	movs	r3, #64	; 0x40
    1f64:	4a0c      	ldr	r2, [pc, #48]	; (1f98 <_data_stage_xact+0x50>)
    1f66:	56d3      	ldrsb	r3, [r2, r3]
    1f68:	2b00      	cmp	r3, #0
    1f6a:	db08      	blt.n	1f7e <_data_stage_xact+0x36>
  uint8_t ep_addr = EDPT_CTRL_OUT;
    1f6c:	2100      	movs	r1, #0
  {
    ep_addr = EDPT_CTRL_IN;
    if ( xact_len ) memcpy(_usbd_ctrl_buf, _ctrl_xfer.buffer, xact_len);
  }

  return usbd_edpt_xfer(rhport, ep_addr, xact_len ? _usbd_ctrl_buf : NULL, xact_len);
    1f6e:	2d00      	cmp	r5, #0
    1f70:	d110      	bne.n	1f94 <_data_stage_xact+0x4c>
    1f72:	2200      	movs	r2, #0
    1f74:	002b      	movs	r3, r5
    1f76:	0020      	movs	r0, r4
    1f78:	4c08      	ldr	r4, [pc, #32]	; (1f9c <_data_stage_xact+0x54>)
    1f7a:	47a0      	blx	r4
}
    1f7c:	bd70      	pop	{r4, r5, r6, pc}
    if ( xact_len ) memcpy(_usbd_ctrl_buf, _ctrl_xfer.buffer, xact_len);
    1f7e:	2d00      	cmp	r5, #0
    1f80:	d101      	bne.n	1f86 <_data_stage_xact+0x3e>
    ep_addr = EDPT_CTRL_IN;
    1f82:	2180      	movs	r1, #128	; 0x80
    1f84:	e7f3      	b.n	1f6e <_data_stage_xact+0x26>
    if ( xact_len ) memcpy(_usbd_ctrl_buf, _ctrl_xfer.buffer, xact_len);
    1f86:	0010      	movs	r0, r2
    1f88:	002a      	movs	r2, r5
    1f8a:	6c81      	ldr	r1, [r0, #72]	; 0x48
    1f8c:	4b04      	ldr	r3, [pc, #16]	; (1fa0 <_data_stage_xact+0x58>)
    1f8e:	4798      	blx	r3
    ep_addr = EDPT_CTRL_IN;
    1f90:	2180      	movs	r1, #128	; 0x80
    1f92:	e7ec      	b.n	1f6e <_data_stage_xact+0x26>
  return usbd_edpt_xfer(rhport, ep_addr, xact_len ? _usbd_ctrl_buf : NULL, xact_len);
    1f94:	4a00      	ldr	r2, [pc, #0]	; (1f98 <_data_stage_xact+0x50>)
    1f96:	e7ed      	b.n	1f74 <_data_stage_xact+0x2c>
    1f98:	20000824 	.word	0x20000824
    1f9c:	000018b1 	.word	0x000018b1
    1fa0:	000031d9 	.word	0x000031d9

00001fa4 <tud_control_status>:
{
    1fa4:	b5f8      	push	{r3, r4, r5, r6, r7, lr}
    1fa6:	0006      	movs	r6, r0
    1fa8:	000d      	movs	r5, r1
  _ctrl_xfer.request       = (*request);
    1faa:	4f0c      	ldr	r7, [pc, #48]	; (1fdc <tud_control_status+0x38>)
    1fac:	003c      	movs	r4, r7
    1fae:	3440      	adds	r4, #64	; 0x40
    1fb0:	2208      	movs	r2, #8
    1fb2:	0020      	movs	r0, r4
    1fb4:	4b0a      	ldr	r3, [pc, #40]	; (1fe0 <tud_control_status+0x3c>)
    1fb6:	4798      	blx	r3
  _ctrl_xfer.buffer        = NULL;
    1fb8:	2300      	movs	r3, #0
    1fba:	64bb      	str	r3, [r7, #72]	; 0x48
  _ctrl_xfer.total_xferred = 0;
    1fbc:	81e3      	strh	r3, [r4, #14]
  _ctrl_xfer.data_len      = 0;
    1fbe:	81a3      	strh	r3, [r4, #12]
  uint8_t const ep_addr = request->bmRequestType_bit.direction ? EDPT_CTRL_OUT : EDPT_CTRL_IN;
    1fc0:	2300      	movs	r3, #0
    1fc2:	56eb      	ldrsb	r3, [r5, r3]
    1fc4:	2b00      	cmp	r3, #0
    1fc6:	db06      	blt.n	1fd6 <tud_control_status+0x32>
    1fc8:	2180      	movs	r1, #128	; 0x80
  return usbd_edpt_xfer(rhport, ep_addr, NULL, 0);
    1fca:	2300      	movs	r3, #0
    1fcc:	2200      	movs	r2, #0
    1fce:	0030      	movs	r0, r6
    1fd0:	4c04      	ldr	r4, [pc, #16]	; (1fe4 <tud_control_status+0x40>)
    1fd2:	47a0      	blx	r4
}
    1fd4:	bdf8      	pop	{r3, r4, r5, r6, r7, pc}
  uint8_t const ep_addr = request->bmRequestType_bit.direction ? EDPT_CTRL_OUT : EDPT_CTRL_IN;
    1fd6:	2100      	movs	r1, #0
    1fd8:	e7f7      	b.n	1fca <tud_control_status+0x26>
    1fda:	46c0      	nop			; (mov r8, r8)
    1fdc:	20000824 	.word	0x20000824
    1fe0:	000031d9 	.word	0x000031d9
    1fe4:	000018b1 	.word	0x000018b1

00001fe8 <tud_control_xfer>:

// Transmit data to/from the control endpoint.
// If the request's wLength is zero, a status packet is sent instead.
bool tud_control_xfer(uint8_t rhport, tusb_control_request_t const * request, void* buffer, uint16_t len)
{
    1fe8:	b5f0      	push	{r4, r5, r6, r7, lr}
    1fea:	b083      	sub	sp, #12
    1fec:	9001      	str	r0, [sp, #4]
    1fee:	000e      	movs	r6, r1
    1ff0:	0017      	movs	r7, r2
    1ff2:	9300      	str	r3, [sp, #0]
  _ctrl_xfer.request       = (*request);
    1ff4:	4c19      	ldr	r4, [pc, #100]	; (205c <STACK_SIZE+0x5c>)
    1ff6:	0025      	movs	r5, r4
    1ff8:	3540      	adds	r5, #64	; 0x40
    1ffa:	2208      	movs	r2, #8
    1ffc:	0028      	movs	r0, r5
    1ffe:	4b18      	ldr	r3, [pc, #96]	; (2060 <STACK_SIZE+0x60>)
    2000:	4798      	blx	r3
  _ctrl_xfer.buffer        = (uint8_t*) buffer;
    2002:	64a7      	str	r7, [r4, #72]	; 0x48
  _ctrl_xfer.total_xferred = 0U;
    2004:	2300      	movs	r3, #0
    2006:	81eb      	strh	r3, [r5, #14]
  _ctrl_xfer.data_len      = tu_min16(len, request->wLength);
    2008:	79b2      	ldrb	r2, [r6, #6]
    200a:	79f3      	ldrb	r3, [r6, #7]
    200c:	021b      	lsls	r3, r3, #8
    200e:	4313      	orrs	r3, r2
    2010:	1c1a      	adds	r2, r3, #0
    2012:	9800      	ldr	r0, [sp, #0]
    2014:	4283      	cmp	r3, r0
    2016:	d900      	bls.n	201a <STACK_SIZE+0x1a>
    2018:	1c02      	adds	r2, r0, #0
    201a:	b291      	uxth	r1, r2
    201c:	4b0f      	ldr	r3, [pc, #60]	; (205c <STACK_SIZE+0x5c>)
    201e:	3340      	adds	r3, #64	; 0x40
    2020:	819a      	strh	r2, [r3, #12]

  if (request->wLength > 0U)
    2022:	79b2      	ldrb	r2, [r6, #6]
    2024:	79f3      	ldrb	r3, [r6, #7]
    2026:	021b      	lsls	r3, r3, #8
    2028:	4313      	orrs	r3, r2
    202a:	d007      	beq.n	203c <STACK_SIZE+0x3c>
  {
    if(_ctrl_xfer.data_len > 0U)
    202c:	2900      	cmp	r1, #0
    202e:	d001      	beq.n	2034 <STACK_SIZE+0x34>
    {
      TU_ASSERT(buffer);
    2030:	2f00      	cmp	r7, #0
    2032:	d011      	beq.n	2058 <STACK_SIZE+0x58>
    }

//    TU_LOG2("  Control total data length is %u bytes\r\n", _ctrl_xfer.data_len);

    // Data stage
    TU_ASSERT( _data_stage_xact(rhport) );
    2034:	9801      	ldr	r0, [sp, #4]
    2036:	4b0b      	ldr	r3, [pc, #44]	; (2064 <STACK_SIZE+0x64>)
    2038:	4798      	blx	r3
    203a:	e009      	b.n	2050 <STACK_SIZE+0x50>
  uint8_t const ep_addr = request->bmRequestType_bit.direction ? EDPT_CTRL_OUT : EDPT_CTRL_IN;
    203c:	2300      	movs	r3, #0
    203e:	56f3      	ldrsb	r3, [r6, r3]
    2040:	2b00      	cmp	r3, #0
    2042:	db07      	blt.n	2054 <STACK_SIZE+0x54>
    2044:	2180      	movs	r1, #128	; 0x80
  return usbd_edpt_xfer(rhport, ep_addr, NULL, 0);
    2046:	2300      	movs	r3, #0
    2048:	2200      	movs	r2, #0
    204a:	9801      	ldr	r0, [sp, #4]
    204c:	4c06      	ldr	r4, [pc, #24]	; (2068 <STACK_SIZE+0x68>)
    204e:	47a0      	blx	r4
    // Status stage
    TU_ASSERT( _status_stage_xact(rhport, request) );
  }

  return true;
}
    2050:	b003      	add	sp, #12
    2052:	bdf0      	pop	{r4, r5, r6, r7, pc}
  uint8_t const ep_addr = request->bmRequestType_bit.direction ? EDPT_CTRL_OUT : EDPT_CTRL_IN;
    2054:	2100      	movs	r1, #0
    2056:	e7f6      	b.n	2046 <STACK_SIZE+0x46>
      TU_ASSERT(buffer);
    2058:	2000      	movs	r0, #0
    205a:	e7f9      	b.n	2050 <STACK_SIZE+0x50>
    205c:	20000824 	.word	0x20000824
    2060:	000031d9 	.word	0x000031d9
    2064:	00001f49 	.word	0x00001f49
    2068:	000018b1 	.word	0x000018b1

0000206c <usbd_control_reset>:
void usbd_control_set_request(tusb_control_request_t const *request);
void usbd_control_set_complete_callback( usbd_control_xfer_cb_t fp );
bool usbd_control_xfer_cb (uint8_t rhport, uint8_t ep_addr, xfer_result_t event, uint32_t xferred_bytes);

void usbd_control_reset(void)
{
    206c:	b510      	push	{r4, lr}
  tu_varclr(&_ctrl_xfer);
    206e:	2214      	movs	r2, #20
    2070:	2100      	movs	r1, #0
    2072:	4802      	ldr	r0, [pc, #8]	; (207c <usbd_control_reset+0x10>)
    2074:	3040      	adds	r0, #64	; 0x40
    2076:	4b02      	ldr	r3, [pc, #8]	; (2080 <usbd_control_reset+0x14>)
    2078:	4798      	blx	r3
}
    207a:	bd10      	pop	{r4, pc}
    207c:	20000824 	.word	0x20000824
    2080:	0000325d 	.word	0x0000325d

00002084 <usbd_control_set_complete_callback>:

// Set complete callback
void usbd_control_set_complete_callback( usbd_control_xfer_cb_t fp )
{
  _ctrl_xfer.complete_cb = fp;
    2084:	4b01      	ldr	r3, [pc, #4]	; (208c <usbd_control_set_complete_callback+0x8>)
    2086:	6518      	str	r0, [r3, #80]	; 0x50
}
    2088:	4770      	bx	lr
    208a:	46c0      	nop			; (mov r8, r8)
    208c:	20000824 	.word	0x20000824

00002090 <usbd_control_set_request>:

// for dcd_set_address where DCD is responsible for status response
void usbd_control_set_request(tusb_control_request_t const *request)
{
    2090:	b570      	push	{r4, r5, r6, lr}
    2092:	0001      	movs	r1, r0
  _ctrl_xfer.request       = (*request);
    2094:	4d05      	ldr	r5, [pc, #20]	; (20ac <usbd_control_set_request+0x1c>)
    2096:	002c      	movs	r4, r5
    2098:	3440      	adds	r4, #64	; 0x40
    209a:	2208      	movs	r2, #8
    209c:	0020      	movs	r0, r4
    209e:	4b04      	ldr	r3, [pc, #16]	; (20b0 <usbd_control_set_request+0x20>)
    20a0:	4798      	blx	r3
  _ctrl_xfer.buffer        = NULL;
    20a2:	2300      	movs	r3, #0
    20a4:	64ab      	str	r3, [r5, #72]	; 0x48
  _ctrl_xfer.total_xferred = 0;
    20a6:	81e3      	strh	r3, [r4, #14]
  _ctrl_xfer.data_len      = 0;
    20a8:	81a3      	strh	r3, [r4, #12]
}
    20aa:	bd70      	pop	{r4, r5, r6, pc}
    20ac:	20000824 	.word	0x20000824
    20b0:	000031d9 	.word	0x000031d9

000020b4 <usbd_control_xfer_cb>:

// callback when a transaction complete on
// - DATA stage of control endpoint or
// - Status stage
bool usbd_control_xfer_cb (uint8_t rhport, uint8_t ep_addr, xfer_result_t result, uint32_t xferred_bytes)
{
    20b4:	b570      	push	{r4, r5, r6, lr}
    20b6:	0004      	movs	r4, r0
    20b8:	001d      	movs	r5, r3
    20ba:	09c9      	lsrs	r1, r1, #7
  (void) result;

  // Endpoint Address is opposite to direction bit, this is Status Stage complete event
  if ( tu_edpt_dir(ep_addr) != _ctrl_xfer.request.bmRequestType_bit.direction )
    20bc:	2340      	movs	r3, #64	; 0x40
    20be:	4a31      	ldr	r2, [pc, #196]	; (2184 <usbd_control_xfer_cb+0xd0>)
    20c0:	5cd3      	ldrb	r3, [r2, r3]
    20c2:	09db      	lsrs	r3, r3, #7
    20c4:	428b      	cmp	r3, r1
    20c6:	d012      	beq.n	20ee <usbd_control_xfer_cb+0x3a>
  {
    TU_ASSERT(0 == xferred_bytes);
    20c8:	2d00      	cmp	r5, #0
    20ca:	d155      	bne.n	2178 <usbd_control_xfer_cb+0xc4>

    // invoke optional dcd hook if available
    if (dcd_edpt0_status_complete) dcd_edpt0_status_complete(rhport, &_ctrl_xfer.request);
    20cc:	4b2e      	ldr	r3, [pc, #184]	; (2188 <usbd_control_xfer_cb+0xd4>)
    20ce:	2b00      	cmp	r3, #0
    20d0:	d002      	beq.n	20d8 <usbd_control_xfer_cb+0x24>
    20d2:	0011      	movs	r1, r2
    20d4:	3140      	adds	r1, #64	; 0x40
    20d6:	4798      	blx	r3

    if (_ctrl_xfer.complete_cb)
    20d8:	4b2a      	ldr	r3, [pc, #168]	; (2184 <usbd_control_xfer_cb+0xd0>)
    20da:	6d1b      	ldr	r3, [r3, #80]	; 0x50
    20dc:	2b00      	cmp	r3, #0
    20de:	d04d      	beq.n	217c <usbd_control_xfer_cb+0xc8>
    {
      // TODO refactor with usbd_driver_print_control_complete_name
      _ctrl_xfer.complete_cb(rhport, CONTROL_STAGE_ACK, &_ctrl_xfer.request);
    20e0:	4a28      	ldr	r2, [pc, #160]	; (2184 <usbd_control_xfer_cb+0xd0>)
    20e2:	3240      	adds	r2, #64	; 0x40
    20e4:	2103      	movs	r1, #3
    20e6:	0020      	movs	r0, r4
    20e8:	4798      	blx	r3
    }

    return true;
    20ea:	2001      	movs	r0, #1
    // More data to transfer
    TU_ASSERT( _data_stage_xact(rhport) );
  }

  return true;
}
    20ec:	bd70      	pop	{r4, r5, r6, pc}
  if ( _ctrl_xfer.request.bmRequestType_bit.direction == TUSB_DIR_OUT )
    20ee:	2340      	movs	r3, #64	; 0x40
    20f0:	4a24      	ldr	r2, [pc, #144]	; (2184 <usbd_control_xfer_cb+0xd0>)
    20f2:	56d3      	ldrsb	r3, [r2, r3]
    20f4:	2b00      	cmp	r3, #0
    20f6:	db07      	blt.n	2108 <usbd_control_xfer_cb+0x54>
    TU_VERIFY(_ctrl_xfer.buffer);
    20f8:	0013      	movs	r3, r2
    20fa:	6c90      	ldr	r0, [r2, #72]	; 0x48
    20fc:	2800      	cmp	r0, #0
    20fe:	d03f      	beq.n	2180 <usbd_control_xfer_cb+0xcc>
    memcpy(_ctrl_xfer.buffer, _usbd_ctrl_buf, xferred_bytes);
    2100:	002a      	movs	r2, r5
    2102:	0019      	movs	r1, r3
    2104:	4b21      	ldr	r3, [pc, #132]	; (218c <usbd_control_xfer_cb+0xd8>)
    2106:	4798      	blx	r3
  _ctrl_xfer.total_xferred += (uint16_t) xferred_bytes;
    2108:	b2aa      	uxth	r2, r5
    210a:	481e      	ldr	r0, [pc, #120]	; (2184 <usbd_control_xfer_cb+0xd0>)
    210c:	0001      	movs	r1, r0
    210e:	3140      	adds	r1, #64	; 0x40
    2110:	89cb      	ldrh	r3, [r1, #14]
    2112:	18d3      	adds	r3, r2, r3
    2114:	b29b      	uxth	r3, r3
    2116:	81cb      	strh	r3, [r1, #14]
  _ctrl_xfer.buffer += xferred_bytes;
    2118:	6c82      	ldr	r2, [r0, #72]	; 0x48
    211a:	1952      	adds	r2, r2, r5
    211c:	6482      	str	r2, [r0, #72]	; 0x48
  if ( (_ctrl_xfer.request.wLength == _ctrl_xfer.total_xferred) || (xferred_bytes < CFG_TUD_ENDPOINT0_SIZE) )
    211e:	88ca      	ldrh	r2, [r1, #6]
    2120:	4293      	cmp	r3, r2
    2122:	d001      	beq.n	2128 <usbd_control_xfer_cb+0x74>
    2124:	2d3f      	cmp	r5, #63	; 0x3f
    2126:	d823      	bhi.n	2170 <usbd_control_xfer_cb+0xbc>
    if ( _ctrl_xfer.complete_cb )
    2128:	4b16      	ldr	r3, [pc, #88]	; (2184 <usbd_control_xfer_cb+0xd0>)
    212a:	6d1b      	ldr	r3, [r3, #80]	; 0x50
    212c:	2b00      	cmp	r3, #0
    212e:	d012      	beq.n	2156 <usbd_control_xfer_cb+0xa2>
      is_ok = _ctrl_xfer.complete_cb(rhport, CONTROL_STAGE_DATA, &_ctrl_xfer.request);
    2130:	4a14      	ldr	r2, [pc, #80]	; (2184 <usbd_control_xfer_cb+0xd0>)
    2132:	3240      	adds	r2, #64	; 0x40
    2134:	2102      	movs	r1, #2
    2136:	0020      	movs	r0, r4
    2138:	4798      	blx	r3
    if ( is_ok )
    213a:	2800      	cmp	r0, #0
    213c:	d00f      	beq.n	215e <usbd_control_xfer_cb+0xaa>
  uint8_t const ep_addr = request->bmRequestType_bit.direction ? EDPT_CTRL_OUT : EDPT_CTRL_IN;
    213e:	2340      	movs	r3, #64	; 0x40
    2140:	4a10      	ldr	r2, [pc, #64]	; (2184 <usbd_control_xfer_cb+0xd0>)
    2142:	56d3      	ldrsb	r3, [r2, r3]
    2144:	2b00      	cmp	r3, #0
    2146:	db08      	blt.n	215a <usbd_control_xfer_cb+0xa6>
    2148:	2180      	movs	r1, #128	; 0x80
  return usbd_edpt_xfer(rhport, ep_addr, NULL, 0);
    214a:	2300      	movs	r3, #0
    214c:	2200      	movs	r2, #0
    214e:	0020      	movs	r0, r4
    2150:	4c0f      	ldr	r4, [pc, #60]	; (2190 <usbd_control_xfer_cb+0xdc>)
    2152:	47a0      	blx	r4
    2154:	e7ca      	b.n	20ec <usbd_control_xfer_cb+0x38>
    bool is_ok = true;
    2156:	2001      	movs	r0, #1
    2158:	e7ef      	b.n	213a <usbd_control_xfer_cb+0x86>
  uint8_t const ep_addr = request->bmRequestType_bit.direction ? EDPT_CTRL_OUT : EDPT_CTRL_IN;
    215a:	2100      	movs	r1, #0
    215c:	e7f5      	b.n	214a <usbd_control_xfer_cb+0x96>
      dcd_edpt_stall(rhport, EDPT_CTRL_OUT);
    215e:	2100      	movs	r1, #0
    2160:	0020      	movs	r0, r4
    2162:	4d0c      	ldr	r5, [pc, #48]	; (2194 <usbd_control_xfer_cb+0xe0>)
    2164:	47a8      	blx	r5
      dcd_edpt_stall(rhport, EDPT_CTRL_IN);
    2166:	2180      	movs	r1, #128	; 0x80
    2168:	0020      	movs	r0, r4
    216a:	47a8      	blx	r5
  return true;
    216c:	2001      	movs	r0, #1
    216e:	e7bd      	b.n	20ec <usbd_control_xfer_cb+0x38>
    TU_ASSERT( _data_stage_xact(rhport) );
    2170:	0020      	movs	r0, r4
    2172:	4b09      	ldr	r3, [pc, #36]	; (2198 <usbd_control_xfer_cb+0xe4>)
    2174:	4798      	blx	r3
    2176:	e7b9      	b.n	20ec <usbd_control_xfer_cb+0x38>
    TU_ASSERT(0 == xferred_bytes);
    2178:	2000      	movs	r0, #0
    217a:	e7b7      	b.n	20ec <usbd_control_xfer_cb+0x38>
    return true;
    217c:	2001      	movs	r0, #1
    217e:	e7b5      	b.n	20ec <usbd_control_xfer_cb+0x38>
    TU_VERIFY(_ctrl_xfer.buffer);
    2180:	2000      	movs	r0, #0
    2182:	e7b3      	b.n	20ec <usbd_control_xfer_cb+0x38>
    2184:	20000824 	.word	0x20000824
    2188:	000022d5 	.word	0x000022d5
    218c:	000031d9 	.word	0x000031d9
    2190:	000018b1 	.word	0x000018b1
    2194:	000024cd 	.word	0x000024cd
    2198:	00001f49 	.word	0x00001f49

0000219c <bus_reset>:
  sram_registers[0][0].PCKSIZE.bit.BYTE_COUNT = 0;
}

// Setup the control endpoint 0.
static void bus_reset(void)
{
    219c:	b510      	push	{r4, lr}
  // Max size of packets is 64 bytes.
  UsbDeviceDescBank* bank_out = &sram_registers[0][TUSB_DIR_OUT];
  bank_out->PCKSIZE.bit.SIZE = 0x3;
    219e:	4b10      	ldr	r3, [pc, #64]	; (21e0 <bus_reset+0x44>)
    21a0:	6858      	ldr	r0, [r3, #4]
    21a2:	4c10      	ldr	r4, [pc, #64]	; (21e4 <bus_reset+0x48>)
    21a4:	4020      	ands	r0, r4
    21a6:	22c0      	movs	r2, #192	; 0xc0
    21a8:	0592      	lsls	r2, r2, #22
    21aa:	0001      	movs	r1, r0
    21ac:	4311      	orrs	r1, r2
    21ae:	6059      	str	r1, [r3, #4]
  UsbDeviceDescBank* bank_in = &sram_registers[0][TUSB_DIR_IN];
  bank_in->PCKSIZE.bit.SIZE = 0x3;
    21b0:	6959      	ldr	r1, [r3, #20]
    21b2:	4021      	ands	r1, r4
    21b4:	430a      	orrs	r2, r1
    21b6:	615a      	str	r2, [r3, #20]

  UsbDeviceEndpoint* ep = &USB->DEVICE.DeviceEndpoint[0];
  ep->EPCFG.reg = USB_DEVICE_EPCFG_EPTYPE0(0x1) | USB_DEVICE_EPCFG_EPTYPE1(0x1);
    21b8:	4a0b      	ldr	r2, [pc, #44]	; (21e8 <bus_reset+0x4c>)
    21ba:	2111      	movs	r1, #17
    21bc:	7011      	strb	r1, [r2, #0]
  ep->EPINTENSET.reg = USB_DEVICE_EPINTENSET_TRCPT0 | USB_DEVICE_EPINTENSET_TRCPT1 | USB_DEVICE_EPINTENSET_RXSTP;
    21be:	3102      	adds	r1, #2
    21c0:	7251      	strb	r1, [r2, #9]
  sram_registers[0][0].ADDR.reg = (uint32_t) _setup_packet;
    21c2:	4a0a      	ldr	r2, [pc, #40]	; (21ec <bus_reset+0x50>)
    21c4:	601a      	str	r2, [r3, #0]
  sram_registers[0][0].PCKSIZE.bit.MULTI_PACKET_SIZE = sizeof(tusb_control_request_t);
    21c6:	6859      	ldr	r1, [r3, #4]
    21c8:	4a09      	ldr	r2, [pc, #36]	; (21f0 <bus_reset+0x54>)
    21ca:	4011      	ands	r1, r2
    21cc:	2280      	movs	r2, #128	; 0x80
    21ce:	0292      	lsls	r2, r2, #10
    21d0:	430a      	orrs	r2, r1
    21d2:	605a      	str	r2, [r3, #4]
  sram_registers[0][0].PCKSIZE.bit.BYTE_COUNT = 0;
    21d4:	685a      	ldr	r2, [r3, #4]
    21d6:	0b92      	lsrs	r2, r2, #14
    21d8:	0391      	lsls	r1, r2, #14
    21da:	6059      	str	r1, [r3, #4]

  // Prepare for setup packet
  prepare_setup();
}
    21dc:	bd10      	pop	{r4, pc}
    21de:	46c0      	nop			; (mov r8, r8)
    21e0:	20000878 	.word	0x20000878
    21e4:	8fffffff 	.word	0x8fffffff
    21e8:	41005100 	.word	0x41005100
    21ec:	20000978 	.word	0x20000978
    21f0:	f0003fff 	.word	0xf0003fff

000021f4 <dcd_init>:

/*------------------------------------------------------------------*/
/* Controller API
 *------------------------------------------------------------------*/
void dcd_init (uint8_t rhport)
{
    21f4:	b530      	push	{r4, r5, lr}
  (void) rhport;

  // Reset to get in a clean state.
  USB->DEVICE.CTRLA.bit.SWRST = true;
    21f6:	4a21      	ldr	r2, [pc, #132]	; (227c <dcd_init+0x88>)
    21f8:	7813      	ldrb	r3, [r2, #0]
    21fa:	2101      	movs	r1, #1
    21fc:	430b      	orrs	r3, r1
    21fe:	7013      	strb	r3, [r2, #0]
  while (USB->DEVICE.SYNCBUSY.bit.SWRST == 0) {}
    2200:	4b1e      	ldr	r3, [pc, #120]	; (227c <dcd_init+0x88>)
    2202:	789b      	ldrb	r3, [r3, #2]
    2204:	07db      	lsls	r3, r3, #31
    2206:	d5fb      	bpl.n	2200 <dcd_init+0xc>
  while (USB->DEVICE.SYNCBUSY.bit.SWRST == 1) {}
    2208:	4b1c      	ldr	r3, [pc, #112]	; (227c <dcd_init+0x88>)
    220a:	789b      	ldrb	r3, [r3, #2]
    220c:	07db      	lsls	r3, r3, #31
    220e:	d4fb      	bmi.n	2208 <dcd_init+0x14>

  USB->DEVICE.PADCAL.bit.TRANSP = (*((uint32_t*) USB_FUSES_TRANSP_ADDR) & USB_FUSES_TRANSP_Msk) >> USB_FUSES_TRANSP_Pos;
    2210:	4b1b      	ldr	r3, [pc, #108]	; (2280 <dcd_init+0x8c>)
    2212:	6819      	ldr	r1, [r3, #0]
    2214:	0c88      	lsrs	r0, r1, #18
    2216:	221f      	movs	r2, #31
    2218:	4010      	ands	r0, r2
    221a:	4b18      	ldr	r3, [pc, #96]	; (227c <dcd_init+0x88>)
    221c:	8d1c      	ldrh	r4, [r3, #40]	; 0x28
    221e:	251f      	movs	r5, #31
    2220:	43ac      	bics	r4, r5
    2222:	4320      	orrs	r0, r4
    2224:	8518      	strh	r0, [r3, #40]	; 0x28
  USB->DEVICE.PADCAL.bit.TRANSN = (*((uint32_t*) USB_FUSES_TRANSN_ADDR) & USB_FUSES_TRANSN_Msk) >> USB_FUSES_TRANSN_Pos;
    2226:	0b4c      	lsrs	r4, r1, #13
    2228:	8d18      	ldrh	r0, [r3, #40]	; 0x28
    222a:	4022      	ands	r2, r4
    222c:	0192      	lsls	r2, r2, #6
    222e:	4c15      	ldr	r4, [pc, #84]	; (2284 <dcd_init+0x90>)
    2230:	4020      	ands	r0, r4
    2232:	4302      	orrs	r2, r0
    2234:	851a      	strh	r2, [r3, #40]	; 0x28
  USB->DEVICE.PADCAL.bit.TRIM   = (*((uint32_t*) USB_FUSES_TRIM_ADDR) & USB_FUSES_TRIM_Msk) >> USB_FUSES_TRIM_Pos;
    2236:	0dc8      	lsrs	r0, r1, #23
    2238:	8d1a      	ldrh	r2, [r3, #40]	; 0x28
    223a:	2107      	movs	r1, #7
    223c:	4001      	ands	r1, r0
    223e:	0309      	lsls	r1, r1, #12
    2240:	4811      	ldr	r0, [pc, #68]	; (2288 <dcd_init+0x94>)
    2242:	4002      	ands	r2, r0
    2244:	430a      	orrs	r2, r1
    2246:	851a      	strh	r2, [r3, #40]	; 0x28

  USB->DEVICE.QOSCTRL.bit.CQOS = 3; // High Quality
    2248:	78da      	ldrb	r2, [r3, #3]
    224a:	2103      	movs	r1, #3
    224c:	430a      	orrs	r2, r1
    224e:	70da      	strb	r2, [r3, #3]
  USB->DEVICE.QOSCTRL.bit.DQOS = 3; // High Quality
    2250:	78da      	ldrb	r2, [r3, #3]
    2252:	210c      	movs	r1, #12
    2254:	430a      	orrs	r2, r1
    2256:	70da      	strb	r2, [r3, #3]

  // Configure registers
  USB->DEVICE.DESCADD.reg = (uint32_t) &sram_registers;
    2258:	4a0c      	ldr	r2, [pc, #48]	; (228c <dcd_init+0x98>)
    225a:	625a      	str	r2, [r3, #36]	; 0x24
  USB->DEVICE.CTRLB.reg = USB_DEVICE_CTRLB_SPDCONF_FS;
    225c:	2200      	movs	r2, #0
    225e:	811a      	strh	r2, [r3, #8]
  USB->DEVICE.CTRLA.reg = USB_CTRLA_MODE_DEVICE | USB_CTRLA_ENABLE | USB_CTRLA_RUNSTDBY;
    2260:	3206      	adds	r2, #6
    2262:	701a      	strb	r2, [r3, #0]
  while (USB->DEVICE.SYNCBUSY.bit.ENABLE == 1) {}
    2264:	4b05      	ldr	r3, [pc, #20]	; (227c <dcd_init+0x88>)
    2266:	789b      	ldrb	r3, [r3, #2]
    2268:	079b      	lsls	r3, r3, #30
    226a:	d4fb      	bmi.n	2264 <dcd_init+0x70>

  USB->DEVICE.INTFLAG.reg |= USB->DEVICE.INTFLAG.reg; // clear pending
    226c:	4b03      	ldr	r3, [pc, #12]	; (227c <dcd_init+0x88>)
    226e:	8b99      	ldrh	r1, [r3, #28]
    2270:	8b9a      	ldrh	r2, [r3, #28]
    2272:	430a      	orrs	r2, r1
    2274:	839a      	strh	r2, [r3, #28]
  USB->DEVICE.INTENSET.reg = /* USB_DEVICE_INTENSET_SOF | */ USB_DEVICE_INTENSET_EORST;
    2276:	2208      	movs	r2, #8
    2278:	831a      	strh	r2, [r3, #24]
}
    227a:	bd30      	pop	{r4, r5, pc}
    227c:	41005000 	.word	0x41005000
    2280:	00806024 	.word	0x00806024
    2284:	fffff83f 	.word	0xfffff83f
    2288:	ffff8fff 	.word	0xffff8fff
    228c:	20000878 	.word	0x20000878

00002290 <dcd_int_enable>:
 */
__STATIC_INLINE void __NVIC_EnableIRQ(IRQn_Type IRQn)
{
  if ((int32_t)(IRQn) >= 0)
  {
    NVIC->ISER[0U] = (uint32_t)(1UL << (((uint32_t)IRQn) & 0x1FUL));
    2290:	2280      	movs	r2, #128	; 0x80
    2292:	4b01      	ldr	r3, [pc, #4]	; (2298 <dcd_int_enable+0x8>)
    2294:	601a      	str	r2, [r3, #0]

void dcd_int_enable(uint8_t rhport)
{
  (void) rhport;
  NVIC_EnableIRQ(USB_IRQn);
}
    2296:	4770      	bx	lr
    2298:	e000e100 	.word	0xe000e100

0000229c <dcd_int_disable>:
 */
__STATIC_INLINE void __NVIC_DisableIRQ(IRQn_Type IRQn)
{
  if ((int32_t)(IRQn) >= 0)
  {
    NVIC->ICER[0U] = (uint32_t)(1UL << (((uint32_t)IRQn) & 0x1FUL));
    229c:	2380      	movs	r3, #128	; 0x80
    229e:	4a03      	ldr	r2, [pc, #12]	; (22ac <dcd_int_disable+0x10>)
    22a0:	50d3      	str	r3, [r2, r3]
  \details Acts as a special kind of Data Memory Barrier.
           It completes when all explicit memory accesses before this instruction complete.
 */
__STATIC_FORCEINLINE void __DSB(void)
{
  __ASM volatile ("dsb 0xF":::"memory");
    22a2:	f3bf 8f4f 	dsb	sy
  __ASM volatile ("isb 0xF":::"memory");
    22a6:	f3bf 8f6f 	isb	sy

void dcd_int_disable(uint8_t rhport)
{
  (void) rhport;
  NVIC_DisableIRQ(USB_IRQn);
}
    22aa:	4770      	bx	lr
    22ac:	e000e100 	.word	0xe000e100

000022b0 <dcd_disconnect>:

// disconnect by disabling internal pull-up resistor on D+/D-
void dcd_disconnect(uint8_t rhport)
{
  (void) rhport;
  USB->DEVICE.CTRLB.reg |= USB_DEVICE_CTRLB_DETACH;
    22b0:	4a03      	ldr	r2, [pc, #12]	; (22c0 <dcd_disconnect+0x10>)
    22b2:	8913      	ldrh	r3, [r2, #8]
    22b4:	2101      	movs	r1, #1
    22b6:	430b      	orrs	r3, r1
    22b8:	b29b      	uxth	r3, r3
    22ba:	8113      	strh	r3, [r2, #8]
}
    22bc:	4770      	bx	lr
    22be:	46c0      	nop			; (mov r8, r8)
    22c0:	41005000 	.word	0x41005000

000022c4 <dcd_connect>:

// connect by enabling internal pull-up resistor on D+/D-
void dcd_connect(uint8_t rhport)
{
  (void) rhport;
   USB->DEVICE.CTRLB.reg &= ~USB_DEVICE_CTRLB_DETACH;
    22c4:	4a02      	ldr	r2, [pc, #8]	; (22d0 <dcd_connect+0xc>)
    22c6:	8913      	ldrh	r3, [r2, #8]
    22c8:	2101      	movs	r1, #1
    22ca:	438b      	bics	r3, r1
    22cc:	8113      	strh	r3, [r2, #8]
}
    22ce:	4770      	bx	lr
    22d0:	41005000 	.word	0x41005000

000022d4 <dcd_edpt0_status_complete>:
// May help DCD to prepare for next control transfer, this API is optional.
void dcd_edpt0_status_complete(uint8_t rhport, tusb_control_request_t const * request)
{
  (void) rhport;

  if (request->bmRequestType_bit.recipient == TUSB_REQ_RCPT_DEVICE &&
    22d4:	780b      	ldrb	r3, [r1, #0]
    22d6:	065b      	lsls	r3, r3, #25
    22d8:	d102      	bne.n	22e0 <dcd_edpt0_status_complete+0xc>
      request->bmRequestType_bit.type == TUSB_REQ_TYPE_STANDARD &&
      request->bRequest == TUSB_REQ_SET_ADDRESS )
    22da:	784b      	ldrb	r3, [r1, #1]
      request->bmRequestType_bit.type == TUSB_REQ_TYPE_STANDARD &&
    22dc:	2b05      	cmp	r3, #5
    22de:	d00e      	beq.n	22fe <dcd_edpt0_status_complete+0x2a>
  sram_registers[0][0].ADDR.reg = (uint32_t) _setup_packet;
    22e0:	4b0a      	ldr	r3, [pc, #40]	; (230c <dcd_edpt0_status_complete+0x38>)
    22e2:	4a0b      	ldr	r2, [pc, #44]	; (2310 <dcd_edpt0_status_complete+0x3c>)
    22e4:	601a      	str	r2, [r3, #0]
  sram_registers[0][0].PCKSIZE.bit.MULTI_PACKET_SIZE = sizeof(tusb_control_request_t);
    22e6:	6859      	ldr	r1, [r3, #4]
    22e8:	4a0a      	ldr	r2, [pc, #40]	; (2314 <dcd_edpt0_status_complete+0x40>)
    22ea:	4011      	ands	r1, r2
    22ec:	2280      	movs	r2, #128	; 0x80
    22ee:	0292      	lsls	r2, r2, #10
    22f0:	430a      	orrs	r2, r1
    22f2:	605a      	str	r2, [r3, #4]
  sram_registers[0][0].PCKSIZE.bit.BYTE_COUNT = 0;
    22f4:	685a      	ldr	r2, [r3, #4]
    22f6:	0b92      	lsrs	r2, r2, #14
    22f8:	0391      	lsls	r1, r2, #14
    22fa:	6059      	str	r1, [r3, #4]

  // Just finished status stage, prepare for next setup packet
  // Note: we may already prepare setup when queueing the control status.
  // but it has no harm to do it again here
  prepare_setup();
}
    22fc:	4770      	bx	lr
    uint8_t const dev_addr = (uint8_t) request->wValue;
    22fe:	788a      	ldrb	r2, [r1, #2]
    USB->DEVICE.DADD.reg = USB_DEVICE_DADD_DADD(dev_addr) | USB_DEVICE_DADD_ADDEN;
    2300:	3b85      	subs	r3, #133	; 0x85
    2302:	4313      	orrs	r3, r2
    2304:	b2db      	uxtb	r3, r3
    2306:	4a04      	ldr	r2, [pc, #16]	; (2318 <dcd_edpt0_status_complete+0x44>)
    2308:	7293      	strb	r3, [r2, #10]
    230a:	e7e9      	b.n	22e0 <dcd_edpt0_status_complete+0xc>
    230c:	20000878 	.word	0x20000878
    2310:	20000978 	.word	0x20000978
    2314:	f0003fff 	.word	0xf0003fff
    2318:	41005000 	.word	0x41005000

0000231c <dcd_edpt_open>:

bool dcd_edpt_open (uint8_t rhport, tusb_desc_endpoint_t const * desc_edpt)
{
    231c:	b5f0      	push	{r4, r5, r6, r7, lr}
  (void) rhport;

  uint8_t const epnum = tu_edpt_number(desc_edpt->bEndpointAddress);
    231e:	788e      	ldrb	r6, [r1, #2]
  return (uint8_t)(addr & (~TUSB_DIR_IN_MASK));
    2320:	247f      	movs	r4, #127	; 0x7f
    2322:	4034      	ands	r4, r6
  return (addr & TUSB_DIR_IN_MASK) ? TUSB_DIR_IN : TUSB_DIR_OUT;
    2324:	b276      	sxtb	r6, r6
    2326:	0ff7      	lsrs	r7, r6, #31
  uint8_t const dir   = tu_edpt_dir(desc_edpt->bEndpointAddress);

  UsbDeviceDescBank* bank = &sram_registers[epnum][dir];
  uint32_t size_value = 0;
    2328:	2200      	movs	r2, #0
  while (size_value < 7) {
    232a:	2a06      	cmp	r2, #6
    232c:	d80c      	bhi.n	2348 <dcd_edpt_open+0x2c>
    if (1 << (size_value + 3) == tu_edpt_packet_size(desc_edpt)) {
    232e:	1cd3      	adds	r3, r2, #3
    2330:	2001      	movs	r0, #1
    2332:	4098      	lsls	r0, r3
  return tu_le16toh(desc_ep->wMaxPacketSize) & TU_GENMASK(10, 0);
    2334:	790d      	ldrb	r5, [r1, #4]
    2336:	794b      	ldrb	r3, [r1, #5]
    2338:	021b      	lsls	r3, r3, #8
    233a:	432b      	orrs	r3, r5
    233c:	055b      	lsls	r3, r3, #21
    233e:	0d5b      	lsrs	r3, r3, #21
    2340:	4298      	cmp	r0, r3
    2342:	d001      	beq.n	2348 <dcd_edpt_open+0x2c>
      break;
    }
    size_value++;
    2344:	3201      	adds	r2, #1
    2346:	e7f0      	b.n	232a <dcd_edpt_open+0xe>
  }

  // unsupported endpoint size
  if ( size_value == 7 && tu_edpt_packet_size(desc_edpt) != 1023 ) return false;
    2348:	2a07      	cmp	r2, #7
    234a:	d026      	beq.n	239a <dcd_edpt_open+0x7e>

  bank->PCKSIZE.bit.SIZE = size_value;
    234c:	0063      	lsls	r3, r4, #1
    234e:	19df      	adds	r7, r3, r7
    2350:	013f      	lsls	r7, r7, #4
    2352:	4b22      	ldr	r3, [pc, #136]	; (23dc <dcd_edpt_open+0xc0>)
    2354:	19df      	adds	r7, r3, r7
    2356:	6878      	ldr	r0, [r7, #4]
    2358:	2307      	movs	r3, #7
    235a:	401a      	ands	r2, r3
    235c:	0712      	lsls	r2, r2, #28
    235e:	4b20      	ldr	r3, [pc, #128]	; (23e0 <dcd_edpt_open+0xc4>)
    2360:	4018      	ands	r0, r3
    2362:	4302      	orrs	r2, r0
    2364:	607a      	str	r2, [r7, #4]

  UsbDeviceEndpoint* ep = &USB->DEVICE.DeviceEndpoint[epnum];
    2366:	0164      	lsls	r4, r4, #5
    2368:	4b1e      	ldr	r3, [pc, #120]	; (23e4 <dcd_edpt_open+0xc8>)
    236a:	469c      	mov	ip, r3
    236c:	4464      	add	r4, ip

  if ( dir == TUSB_DIR_OUT )
    236e:	2e00      	cmp	r6, #0
    2370:	db1e      	blt.n	23b0 <dcd_edpt_open+0x94>
  {
    ep->EPCFG.bit.EPTYPE0 = desc_edpt->bmAttributes.xfer + 1;
    2372:	78cb      	ldrb	r3, [r1, #3]
    2374:	079b      	lsls	r3, r3, #30
    2376:	0f9b      	lsrs	r3, r3, #30
    2378:	3301      	adds	r3, #1
    237a:	7822      	ldrb	r2, [r4, #0]
    237c:	2107      	movs	r1, #7
    237e:	4019      	ands	r1, r3
    2380:	2307      	movs	r3, #7
    2382:	439a      	bics	r2, r3
    2384:	0013      	movs	r3, r2
    2386:	430b      	orrs	r3, r1
    2388:	7023      	strb	r3, [r4, #0]
    ep->EPSTATUSCLR.reg = USB_DEVICE_EPSTATUSCLR_STALLRQ0 | USB_DEVICE_EPSTATUSCLR_DTGLOUT; // clear stall & dtoggle
    238a:	2311      	movs	r3, #17
    238c:	7123      	strb	r3, [r4, #4]
    ep->EPINTENSET.bit.TRCPT0 = true;
    238e:	7a63      	ldrb	r3, [r4, #9]
    2390:	2201      	movs	r2, #1
    2392:	4313      	orrs	r3, r2
    2394:	7263      	strb	r3, [r4, #9]
    ep->EPCFG.bit.EPTYPE1 = desc_edpt->bmAttributes.xfer + 1;
    ep->EPSTATUSCLR.reg = USB_DEVICE_EPSTATUSCLR_STALLRQ1 | USB_DEVICE_EPSTATUSCLR_DTGLIN; // clear stall & dtoggle
    ep->EPINTENSET.bit.TRCPT1 = true;
  }

  return true;
    2396:	2001      	movs	r0, #1
}
    2398:	bdf0      	pop	{r4, r5, r6, r7, pc}
    239a:	7908      	ldrb	r0, [r1, #4]
    239c:	794b      	ldrb	r3, [r1, #5]
    239e:	021b      	lsls	r3, r3, #8
    23a0:	4303      	orrs	r3, r0
    23a2:	055b      	lsls	r3, r3, #21
    23a4:	0d5b      	lsrs	r3, r3, #21
  if ( size_value == 7 && tu_edpt_packet_size(desc_edpt) != 1023 ) return false;
    23a6:	4810      	ldr	r0, [pc, #64]	; (23e8 <dcd_edpt_open+0xcc>)
    23a8:	4283      	cmp	r3, r0
    23aa:	d0cf      	beq.n	234c <dcd_edpt_open+0x30>
    23ac:	2000      	movs	r0, #0
    23ae:	e7f3      	b.n	2398 <dcd_edpt_open+0x7c>
    ep->EPCFG.bit.EPTYPE1 = desc_edpt->bmAttributes.xfer + 1;
    23b0:	78cb      	ldrb	r3, [r1, #3]
    23b2:	079b      	lsls	r3, r3, #30
    23b4:	0f9b      	lsrs	r3, r3, #30
    23b6:	3301      	adds	r3, #1
    23b8:	7822      	ldrb	r2, [r4, #0]
    23ba:	2107      	movs	r1, #7
    23bc:	4019      	ands	r1, r3
    23be:	0109      	lsls	r1, r1, #4
    23c0:	2370      	movs	r3, #112	; 0x70
    23c2:	439a      	bics	r2, r3
    23c4:	0013      	movs	r3, r2
    23c6:	430b      	orrs	r3, r1
    23c8:	7023      	strb	r3, [r4, #0]
    ep->EPSTATUSCLR.reg = USB_DEVICE_EPSTATUSCLR_STALLRQ1 | USB_DEVICE_EPSTATUSCLR_DTGLIN; // clear stall & dtoggle
    23ca:	2322      	movs	r3, #34	; 0x22
    23cc:	7123      	strb	r3, [r4, #4]
    ep->EPINTENSET.bit.TRCPT1 = true;
    23ce:	7a63      	ldrb	r3, [r4, #9]
    23d0:	2202      	movs	r2, #2
    23d2:	4313      	orrs	r3, r2
    23d4:	7263      	strb	r3, [r4, #9]
  return true;
    23d6:	2001      	movs	r0, #1
    23d8:	e7de      	b.n	2398 <dcd_edpt_open+0x7c>
    23da:	46c0      	nop			; (mov r8, r8)
    23dc:	20000878 	.word	0x20000878
    23e0:	8fffffff 	.word	0x8fffffff
    23e4:	41005100 	.word	0x41005100
    23e8:	000003ff 	.word	0x000003ff

000023ec <dcd_edpt_close_all>:

void dcd_edpt_close_all (uint8_t rhport)
{
  (void) rhport;
  // TODO implement dcd_edpt_close_all()
}
    23ec:	4770      	bx	lr
	...

000023f0 <dcd_edpt_xfer>:

bool dcd_edpt_xfer (uint8_t rhport, uint8_t ep_addr, uint8_t * buffer, uint16_t total_bytes)
{
    23f0:	b5f0      	push	{r4, r5, r6, r7, lr}
  return (uint8_t)(addr & (~TUSB_DIR_IN_MASK));
    23f2:	207f      	movs	r0, #127	; 0x7f
    23f4:	4008      	ands	r0, r1
  return (addr & TUSB_DIR_IN_MASK) ? TUSB_DIR_IN : TUSB_DIR_OUT;
    23f6:	b249      	sxtb	r1, r1
    23f8:	0fcf      	lsrs	r7, r1, #31

  uint8_t const epnum = tu_edpt_number(ep_addr);
  uint8_t const dir   = tu_edpt_dir(ep_addr);

  UsbDeviceDescBank* bank = &sram_registers[epnum][dir];
  UsbDeviceEndpoint* ep = &USB->DEVICE.DeviceEndpoint[epnum];
    23fa:	0145      	lsls	r5, r0, #5
    23fc:	4c27      	ldr	r4, [pc, #156]	; (249c <dcd_edpt_xfer+0xac>)
    23fe:	46a4      	mov	ip, r4
    2400:	4465      	add	r5, ip

  bank->ADDR.reg = (uint32_t) buffer;
    2402:	0044      	lsls	r4, r0, #1
    2404:	19e4      	adds	r4, r4, r7
    2406:	0124      	lsls	r4, r4, #4
    2408:	4e25      	ldr	r6, [pc, #148]	; (24a0 <dcd_edpt_xfer+0xb0>)
    240a:	51a2      	str	r2, [r4, r6]

  // A SETUP token can occur immediately after an ZLP Status.
  // So make sure we have a valid buffer for setup packet.
  //   Status = ZLP EP0 with direction opposite to one in the dir bit of current setup
  if ( (epnum == 0) && (buffer == NULL) && (total_bytes == 0) && (dir != tu_edpt_dir(_setup_packet[0])) ) {
    240c:	2800      	cmp	r0, #0
    240e:	d101      	bne.n	2414 <dcd_edpt_xfer+0x24>
    2410:	2a00      	cmp	r2, #0
    2412:	d017      	beq.n	2444 <dcd_edpt_xfer+0x54>
    prepare_setup();
  }

  if ( dir == TUSB_DIR_OUT )
    2414:	2900      	cmp	r1, #0
    2416:	db2b      	blt.n	2470 <dcd_edpt_xfer+0x80>
  {
    bank->PCKSIZE.bit.MULTI_PACKET_SIZE = total_bytes;
    2418:	0040      	lsls	r0, r0, #1
    241a:	19c0      	adds	r0, r0, r7
    241c:	0102      	lsls	r2, r0, #4
    241e:	4820      	ldr	r0, [pc, #128]	; (24a0 <dcd_edpt_xfer+0xb0>)
    2420:	1880      	adds	r0, r0, r2
    2422:	6842      	ldr	r2, [r0, #4]
    2424:	049b      	lsls	r3, r3, #18
    2426:	091b      	lsrs	r3, r3, #4
    2428:	491e      	ldr	r1, [pc, #120]	; (24a4 <dcd_edpt_xfer+0xb4>)
    242a:	400a      	ands	r2, r1
    242c:	4313      	orrs	r3, r2
    242e:	6043      	str	r3, [r0, #4]
    bank->PCKSIZE.bit.BYTE_COUNT = 0;
    2430:	6843      	ldr	r3, [r0, #4]
    2432:	0b9b      	lsrs	r3, r3, #14
    2434:	039a      	lsls	r2, r3, #14
    2436:	6042      	str	r2, [r0, #4]
    ep->EPSTATUSCLR.reg = USB_DEVICE_EPSTATUSCLR_BK0RDY;
    2438:	2340      	movs	r3, #64	; 0x40
    243a:	712b      	strb	r3, [r5, #4]
    ep->EPINTFLAG.reg = USB_DEVICE_EPINTFLAG_TRFAIL0;
    243c:	3b3c      	subs	r3, #60	; 0x3c
    243e:	71eb      	strb	r3, [r5, #7]
    ep->EPSTATUSSET.reg = USB_DEVICE_EPSTATUSSET_BK1RDY;
    ep->EPINTFLAG.reg = USB_DEVICE_EPINTFLAG_TRFAIL1;
  }

  return true;
}
    2440:	2001      	movs	r0, #1
    2442:	bdf0      	pop	{r4, r5, r6, r7, pc}
  if ( (epnum == 0) && (buffer == NULL) && (total_bytes == 0) && (dir != tu_edpt_dir(_setup_packet[0])) ) {
    2444:	2b00      	cmp	r3, #0
    2446:	d1e5      	bne.n	2414 <dcd_edpt_xfer+0x24>
    2448:	4a17      	ldr	r2, [pc, #92]	; (24a8 <dcd_edpt_xfer+0xb8>)
    244a:	7812      	ldrb	r2, [r2, #0]
    244c:	09d2      	lsrs	r2, r2, #7
    244e:	4297      	cmp	r7, r2
    2450:	d0e0      	beq.n	2414 <dcd_edpt_xfer+0x24>
  sram_registers[0][0].ADDR.reg = (uint32_t) _setup_packet;
    2452:	0032      	movs	r2, r6
    2454:	4c14      	ldr	r4, [pc, #80]	; (24a8 <dcd_edpt_xfer+0xb8>)
    2456:	6034      	str	r4, [r6, #0]
  sram_registers[0][0].PCKSIZE.bit.MULTI_PACKET_SIZE = sizeof(tusb_control_request_t);
    2458:	6876      	ldr	r6, [r6, #4]
    245a:	4c12      	ldr	r4, [pc, #72]	; (24a4 <dcd_edpt_xfer+0xb4>)
    245c:	4026      	ands	r6, r4
    245e:	2480      	movs	r4, #128	; 0x80
    2460:	02a4      	lsls	r4, r4, #10
    2462:	4334      	orrs	r4, r6
    2464:	6054      	str	r4, [r2, #4]
  sram_registers[0][0].PCKSIZE.bit.BYTE_COUNT = 0;
    2466:	6854      	ldr	r4, [r2, #4]
    2468:	0ba4      	lsrs	r4, r4, #14
    246a:	03a6      	lsls	r6, r4, #14
    246c:	6056      	str	r6, [r2, #4]
    246e:	e7d1      	b.n	2414 <dcd_edpt_xfer+0x24>
    bank->PCKSIZE.bit.MULTI_PACKET_SIZE = 0;
    2470:	0040      	lsls	r0, r0, #1
    2472:	19c0      	adds	r0, r0, r7
    2474:	0100      	lsls	r0, r0, #4
    2476:	4a0a      	ldr	r2, [pc, #40]	; (24a0 <dcd_edpt_xfer+0xb0>)
    2478:	1810      	adds	r0, r2, r0
    247a:	6841      	ldr	r1, [r0, #4]
    247c:	4a09      	ldr	r2, [pc, #36]	; (24a4 <dcd_edpt_xfer+0xb4>)
    247e:	400a      	ands	r2, r1
    2480:	6042      	str	r2, [r0, #4]
    bank->PCKSIZE.bit.BYTE_COUNT = total_bytes;
    2482:	6842      	ldr	r2, [r0, #4]
    2484:	049b      	lsls	r3, r3, #18
    2486:	0c9b      	lsrs	r3, r3, #18
    2488:	0b92      	lsrs	r2, r2, #14
    248a:	0392      	lsls	r2, r2, #14
    248c:	4313      	orrs	r3, r2
    248e:	6043      	str	r3, [r0, #4]
    ep->EPSTATUSSET.reg = USB_DEVICE_EPSTATUSSET_BK1RDY;
    2490:	2380      	movs	r3, #128	; 0x80
    2492:	716b      	strb	r3, [r5, #5]
    ep->EPINTFLAG.reg = USB_DEVICE_EPINTFLAG_TRFAIL1;
    2494:	3b78      	subs	r3, #120	; 0x78
    2496:	71eb      	strb	r3, [r5, #7]
    2498:	e7d2      	b.n	2440 <dcd_edpt_xfer+0x50>
    249a:	46c0      	nop			; (mov r8, r8)
    249c:	41005100 	.word	0x41005100
    24a0:	20000878 	.word	0x20000878
    24a4:	f0003fff 	.word	0xf0003fff
    24a8:	20000978 	.word	0x20000978

000024ac <dcd_set_address>:
{
    24ac:	b510      	push	{r4, lr}
  dcd_edpt_xfer(rhport, 0x80, NULL, 0);
    24ae:	2300      	movs	r3, #0
    24b0:	2200      	movs	r2, #0
    24b2:	2180      	movs	r1, #128	; 0x80
    24b4:	4c03      	ldr	r4, [pc, #12]	; (24c4 <dcd_set_address+0x18>)
    24b6:	47a0      	blx	r4
  USB->DEVICE.INTFLAG.reg = USB_DEVICE_INTENCLR_SUSPEND; // clear pending
    24b8:	4b03      	ldr	r3, [pc, #12]	; (24c8 <dcd_set_address+0x1c>)
    24ba:	2201      	movs	r2, #1
    24bc:	839a      	strh	r2, [r3, #28]
  USB->DEVICE.INTENSET.reg = USB_DEVICE_INTENSET_SUSPEND;
    24be:	831a      	strh	r2, [r3, #24]
}
    24c0:	bd10      	pop	{r4, pc}
    24c2:	46c0      	nop			; (mov r8, r8)
    24c4:	000023f1 	.word	0x000023f1
    24c8:	41005000 	.word	0x41005000

000024cc <dcd_edpt_stall>:
  return (uint8_t)(addr & (~TUSB_DIR_IN_MASK));
    24cc:	237f      	movs	r3, #127	; 0x7f
    24ce:	400b      	ands	r3, r1
void dcd_edpt_stall (uint8_t rhport, uint8_t ep_addr)
{
  (void) rhport;

  uint8_t const epnum = tu_edpt_number(ep_addr);
  UsbDeviceEndpoint* ep = &USB->DEVICE.DeviceEndpoint[epnum];
    24d0:	015b      	lsls	r3, r3, #5
    24d2:	4a06      	ldr	r2, [pc, #24]	; (24ec <dcd_edpt_stall+0x20>)
    24d4:	4694      	mov	ip, r2
    24d6:	4463      	add	r3, ip
  return (addr & TUSB_DIR_IN_MASK) ? TUSB_DIR_IN : TUSB_DIR_OUT;
    24d8:	b249      	sxtb	r1, r1

  if (tu_edpt_dir(ep_addr) == TUSB_DIR_IN) {
    24da:	2900      	cmp	r1, #0
    24dc:	db02      	blt.n	24e4 <dcd_edpt_stall+0x18>
    ep->EPSTATUSSET.reg = USB_DEVICE_EPSTATUSSET_STALLRQ1;
  } else {
    ep->EPSTATUSSET.reg = USB_DEVICE_EPSTATUSSET_STALLRQ0;
    24de:	2210      	movs	r2, #16
    24e0:	715a      	strb	r2, [r3, #5]
  }
}
    24e2:	4770      	bx	lr
    ep->EPSTATUSSET.reg = USB_DEVICE_EPSTATUSSET_STALLRQ1;
    24e4:	2220      	movs	r2, #32
    24e6:	715a      	strb	r2, [r3, #5]
    24e8:	e7fb      	b.n	24e2 <dcd_edpt_stall+0x16>
    24ea:	46c0      	nop			; (mov r8, r8)
    24ec:	41005100 	.word	0x41005100

000024f0 <dcd_edpt_clear_stall>:
  return (uint8_t)(addr & (~TUSB_DIR_IN_MASK));
    24f0:	237f      	movs	r3, #127	; 0x7f
    24f2:	400b      	ands	r3, r1
void dcd_edpt_clear_stall (uint8_t rhport, uint8_t ep_addr)
{
  (void) rhport;

  uint8_t const epnum = tu_edpt_number(ep_addr);
  UsbDeviceEndpoint* ep = &USB->DEVICE.DeviceEndpoint[epnum];
    24f4:	015b      	lsls	r3, r3, #5
    24f6:	4a06      	ldr	r2, [pc, #24]	; (2510 <dcd_edpt_clear_stall+0x20>)
    24f8:	4694      	mov	ip, r2
    24fa:	4463      	add	r3, ip
  return (addr & TUSB_DIR_IN_MASK) ? TUSB_DIR_IN : TUSB_DIR_OUT;
    24fc:	b249      	sxtb	r1, r1

  if (tu_edpt_dir(ep_addr) == TUSB_DIR_IN) {
    24fe:	2900      	cmp	r1, #0
    2500:	db02      	blt.n	2508 <dcd_edpt_clear_stall+0x18>
    ep->EPSTATUSCLR.reg = USB_DEVICE_EPSTATUSCLR_STALLRQ1 | USB_DEVICE_EPSTATUSCLR_DTGLIN;
  } else {
    ep->EPSTATUSCLR.reg = USB_DEVICE_EPSTATUSCLR_STALLRQ0 | USB_DEVICE_EPSTATUSCLR_DTGLOUT;
    2502:	2211      	movs	r2, #17
    2504:	711a      	strb	r2, [r3, #4]
  }
}
    2506:	4770      	bx	lr
    ep->EPSTATUSCLR.reg = USB_DEVICE_EPSTATUSCLR_STALLRQ1 | USB_DEVICE_EPSTATUSCLR_DTGLIN;
    2508:	2222      	movs	r2, #34	; 0x22
    250a:	711a      	strb	r2, [r3, #4]
    250c:	e7fb      	b.n	2506 <dcd_edpt_clear_stall+0x16>
    250e:	46c0      	nop			; (mov r8, r8)
    2510:	41005100 	.word	0x41005100

00002514 <maybe_transfer_complete>:

//--------------------------------------------------------------------+
// Interrupt Handler
//--------------------------------------------------------------------+
void maybe_transfer_complete(void) {
    2514:	b5f0      	push	{r4, r5, r6, r7, lr}
    2516:	46de      	mov	lr, fp
    2518:	4657      	mov	r7, sl
    251a:	464e      	mov	r6, r9
    251c:	4645      	mov	r5, r8
    251e:	b5e0      	push	{r5, r6, r7, lr}
    2520:	b085      	sub	sp, #20
  uint32_t epints = USB->DEVICE.EPINTSMRY.reg;
    2522:	4b2d      	ldr	r3, [pc, #180]	; (25d8 <maybe_transfer_complete+0xc4>)
    2524:	8c1b      	ldrh	r3, [r3, #32]
    2526:	b29b      	uxth	r3, r3
    2528:	4698      	mov	r8, r3

  for (uint8_t epnum = 0; epnum < USB_EPT_NUM; epnum++) {
    252a:	2400      	movs	r4, #0
    252c:	e022      	b.n	2574 <maybe_transfer_complete+0x60>
    uint32_t epintflag = ep->EPINTFLAG.reg;

    // Handle IN completions
    if ((epintflag & USB_DEVICE_EPINTFLAG_TRCPT1) != 0) {
      UsbDeviceDescBank* bank = &sram_registers[epnum][TUSB_DIR_IN];
      uint16_t const total_transfer_size = bank->PCKSIZE.bit.BYTE_COUNT;
    252e:	0162      	lsls	r2, r4, #5
    2530:	4b2a      	ldr	r3, [pc, #168]	; (25dc <maybe_transfer_complete+0xc8>)
    2532:	189b      	adds	r3, r3, r2
    2534:	3310      	adds	r3, #16
    2536:	685b      	ldr	r3, [r3, #4]
    2538:	049b      	lsls	r3, r3, #18
    253a:	0c9b      	lsrs	r3, r3, #18
    253c:	469a      	mov	sl, r3

      dcd_event_xfer_complete(0, epnum | TUSB_DIR_IN_MASK, total_transfer_size, XFER_RESULT_SUCCESS, true);
    253e:	2380      	movs	r3, #128	; 0x80
    2540:	425b      	negs	r3, r3
    2542:	4323      	orrs	r3, r4
    2544:	b2db      	uxtb	r3, r3
    2546:	469b      	mov	fp, r3
}

// helper to send transfer complete event
TU_ATTR_ALWAYS_INLINE static inline void dcd_event_xfer_complete (uint8_t rhport, uint8_t ep_addr, uint32_t xferred_bytes, uint8_t result, bool in_isr)
{
  dcd_event_t event = { .rhport = rhport, .event_id = DCD_EVENT_XFER_COMPLETE };
    2548:	af01      	add	r7, sp, #4
    254a:	220c      	movs	r2, #12
    254c:	2100      	movs	r1, #0
    254e:	0038      	movs	r0, r7
    2550:	4b23      	ldr	r3, [pc, #140]	; (25e0 <maybe_transfer_complete+0xcc>)
    2552:	4798      	blx	r3
    2554:	2307      	movs	r3, #7
    2556:	707b      	strb	r3, [r7, #1]

  event.xfer_complete.ep_addr = ep_addr;
    2558:	465b      	mov	r3, fp
    255a:	713b      	strb	r3, [r7, #4]
  event.xfer_complete.len     = xferred_bytes;
    255c:	4653      	mov	r3, sl
    255e:	60bb      	str	r3, [r7, #8]
  event.xfer_complete.result  = result;

  dcd_event_handler(&event, in_isr);
    2560:	2101      	movs	r1, #1
    2562:	0038      	movs	r0, r7
    2564:	4b1f      	ldr	r3, [pc, #124]	; (25e4 <maybe_transfer_complete+0xd0>)
    2566:	4798      	blx	r3

      ep->EPINTFLAG.reg = USB_DEVICE_EPINTFLAG_TRCPT1;
    2568:	2302      	movs	r3, #2
    256a:	464a      	mov	r2, r9
    256c:	71d3      	strb	r3, [r2, #7]
    256e:	e012      	b.n	2596 <maybe_transfer_complete+0x82>
  for (uint8_t epnum = 0; epnum < USB_EPT_NUM; epnum++) {
    2570:	3401      	adds	r4, #1
    2572:	b2e4      	uxtb	r4, r4
    2574:	2c07      	cmp	r4, #7
    2576:	d828      	bhi.n	25ca <maybe_transfer_complete+0xb6>
    if ((epints & (1 << epnum)) == 0) {
    2578:	0025      	movs	r5, r4
    257a:	2301      	movs	r3, #1
    257c:	40a3      	lsls	r3, r4
    257e:	4642      	mov	r2, r8
    2580:	4213      	tst	r3, r2
    2582:	d0f5      	beq.n	2570 <maybe_transfer_complete+0x5c>
    UsbDeviceEndpoint* ep = &USB->DEVICE.DeviceEndpoint[epnum];
    2584:	0163      	lsls	r3, r4, #5
    2586:	4a18      	ldr	r2, [pc, #96]	; (25e8 <maybe_transfer_complete+0xd4>)
    2588:	4691      	mov	r9, r2
    258a:	4499      	add	r9, r3
    uint32_t epintflag = ep->EPINTFLAG.reg;
    258c:	464b      	mov	r3, r9
    258e:	79de      	ldrb	r6, [r3, #7]
    2590:	b2f6      	uxtb	r6, r6
    if ((epintflag & USB_DEVICE_EPINTFLAG_TRCPT1) != 0) {
    2592:	07b3      	lsls	r3, r6, #30
    2594:	d4cb      	bmi.n	252e <maybe_transfer_complete+0x1a>
    }

    // Handle OUT completions
    if ((epintflag & USB_DEVICE_EPINTFLAG_TRCPT0) != 0) {
    2596:	07f3      	lsls	r3, r6, #31
    2598:	d5ea      	bpl.n	2570 <maybe_transfer_complete+0x5c>
      UsbDeviceDescBank* bank = &sram_registers[epnum][TUSB_DIR_OUT];
      uint16_t const total_transfer_size = bank->PCKSIZE.bit.BYTE_COUNT;
    259a:	016d      	lsls	r5, r5, #5
    259c:	4b0f      	ldr	r3, [pc, #60]	; (25dc <maybe_transfer_complete+0xc8>)
    259e:	195d      	adds	r5, r3, r5
    25a0:	686e      	ldr	r6, [r5, #4]
    25a2:	04b6      	lsls	r6, r6, #18
    25a4:	0cb6      	lsrs	r6, r6, #18
  dcd_event_t event = { .rhport = rhport, .event_id = DCD_EVENT_XFER_COMPLETE };
    25a6:	ad01      	add	r5, sp, #4
    25a8:	220c      	movs	r2, #12
    25aa:	2100      	movs	r1, #0
    25ac:	0028      	movs	r0, r5
    25ae:	4b0c      	ldr	r3, [pc, #48]	; (25e0 <maybe_transfer_complete+0xcc>)
    25b0:	4798      	blx	r3
    25b2:	2307      	movs	r3, #7
    25b4:	706b      	strb	r3, [r5, #1]
  event.xfer_complete.ep_addr = ep_addr;
    25b6:	712c      	strb	r4, [r5, #4]
  event.xfer_complete.len     = xferred_bytes;
    25b8:	60ae      	str	r6, [r5, #8]
  dcd_event_handler(&event, in_isr);
    25ba:	2101      	movs	r1, #1
    25bc:	0028      	movs	r0, r5
    25be:	4b09      	ldr	r3, [pc, #36]	; (25e4 <maybe_transfer_complete+0xd0>)
    25c0:	4798      	blx	r3

      dcd_event_xfer_complete(0, epnum, total_transfer_size, XFER_RESULT_SUCCESS, true);

      ep->EPINTFLAG.reg = USB_DEVICE_EPINTFLAG_TRCPT0;
    25c2:	2301      	movs	r3, #1
    25c4:	464a      	mov	r2, r9
    25c6:	71d3      	strb	r3, [r2, #7]
    25c8:	e7d2      	b.n	2570 <maybe_transfer_complete+0x5c>
    }
  }
}
    25ca:	b005      	add	sp, #20
    25cc:	bc3c      	pop	{r2, r3, r4, r5}
    25ce:	4690      	mov	r8, r2
    25d0:	4699      	mov	r9, r3
    25d2:	46a2      	mov	sl, r4
    25d4:	46ab      	mov	fp, r5
    25d6:	bdf0      	pop	{r4, r5, r6, r7, pc}
    25d8:	41005000 	.word	0x41005000
    25dc:	20000878 	.word	0x20000878
    25e0:	0000325d 	.word	0x0000325d
    25e4:	00001611 	.word	0x00001611
    25e8:	41005100 	.word	0x41005100

000025ec <dcd_int_handler>:


void dcd_int_handler (uint8_t rhport)
{
    25ec:	b530      	push	{r4, r5, lr}
    25ee:	b085      	sub	sp, #20
  (void) rhport;

  uint32_t int_status = USB->DEVICE.INTFLAG.reg & USB->DEVICE.INTENSET.reg;
    25f0:	4b39      	ldr	r3, [pc, #228]	; (26d8 <dcd_int_handler+0xec>)
    25f2:	8b9a      	ldrh	r2, [r3, #28]
    25f4:	8b1c      	ldrh	r4, [r3, #24]
    25f6:	4014      	ands	r4, r2

  // Start of Frame
  if ( int_status & USB_DEVICE_INTFLAG_SOF )
    25f8:	0763      	lsls	r3, r4, #29
    25fa:	d40f      	bmi.n	261c <dcd_int_handler+0x30>

  // SAMD doesn't distinguish between Suspend and Disconnect state.
  // Both condition will cause SUSPEND interrupt triggered.
  // To prevent being triggered when D+/D- are not stable, SUSPEND interrupt is only
  // enabled when we received SET_ADDRESS request and cleared on Bus Reset
  if ( int_status & USB_DEVICE_INTFLAG_SUSPEND )
    25fc:	07e3      	lsls	r3, r4, #31
    25fe:	d41d      	bmi.n	263c <dcd_int_handler+0x50>
    dcd_event_bus_signal(0, DCD_EVENT_SUSPEND, true);
  }

  // Wakeup interrupt is only enabled when we got suspended.
  // Wakeup interrupt will disable itself
  if ( int_status & USB_DEVICE_INTFLAG_WAKEUP )
    2600:	06e3      	lsls	r3, r4, #27
    2602:	d42e      	bmi.n	2662 <dcd_int_handler+0x76>
    USB->DEVICE.INTENCLR.reg = USB_DEVICE_INTFLAG_WAKEUP;
    dcd_event_bus_signal(0, DCD_EVENT_RESUME, true);
  }

  // Enable of Reset
  if ( int_status & USB_DEVICE_INTFLAG_EORST )
    2604:	0723      	lsls	r3, r4, #28
    2606:	d43d      	bmi.n	2684 <dcd_int_handler+0x98>
    bus_reset();
    dcd_event_bus_reset(0, TUSB_SPEED_FULL, true);
  }

  // Handle SETUP packet
  if (USB->DEVICE.DeviceEndpoint[0].EPINTFLAG.bit.RXSTP)
    2608:	2308      	movs	r3, #8
    260a:	33ff      	adds	r3, #255	; 0xff
    260c:	4a32      	ldr	r2, [pc, #200]	; (26d8 <dcd_int_handler+0xec>)
    260e:	5cd3      	ldrb	r3, [r2, r3]
    2610:	06db      	lsls	r3, r3, #27
    2612:	d44b      	bmi.n	26ac <dcd_int_handler+0xc0>
    // Since control status complete event is optional, we can just clear TRCPT0 and skip the status event
    USB->DEVICE.DeviceEndpoint[0].EPINTFLAG.reg = USB_DEVICE_EPINTFLAG_RXSTP | USB_DEVICE_EPINTFLAG_TRCPT0;
  }

  // Handle complete transfer
  maybe_transfer_complete();
    2614:	4b31      	ldr	r3, [pc, #196]	; (26dc <dcd_int_handler+0xf0>)
    2616:	4798      	blx	r3
}
    2618:	b005      	add	sp, #20
    261a:	bd30      	pop	{r4, r5, pc}
    USB->DEVICE.INTFLAG.reg = USB_DEVICE_INTFLAG_SOF;
    261c:	2204      	movs	r2, #4
    261e:	4b2e      	ldr	r3, [pc, #184]	; (26d8 <dcd_int_handler+0xec>)
    2620:	839a      	strh	r2, [r3, #28]
  dcd_event_t event = { .rhport = rhport, .event_id = eid };
    2622:	ad01      	add	r5, sp, #4
    2624:	3208      	adds	r2, #8
    2626:	2100      	movs	r1, #0
    2628:	0028      	movs	r0, r5
    262a:	4b2d      	ldr	r3, [pc, #180]	; (26e0 <dcd_int_handler+0xf4>)
    262c:	4798      	blx	r3
    262e:	2303      	movs	r3, #3
    2630:	706b      	strb	r3, [r5, #1]
  dcd_event_handler(&event, in_isr);
    2632:	2101      	movs	r1, #1
    2634:	0028      	movs	r0, r5
    2636:	4b2b      	ldr	r3, [pc, #172]	; (26e4 <dcd_int_handler+0xf8>)
    2638:	4798      	blx	r3
    263a:	e7df      	b.n	25fc <dcd_int_handler+0x10>
    USB->DEVICE.INTFLAG.reg = USB_DEVICE_INTFLAG_SUSPEND;
    263c:	4b26      	ldr	r3, [pc, #152]	; (26d8 <dcd_int_handler+0xec>)
    263e:	2201      	movs	r2, #1
    2640:	839a      	strh	r2, [r3, #28]
    USB->DEVICE.INTFLAG.reg = USB_DEVICE_INTFLAG_WAKEUP; // clear pending
    2642:	320f      	adds	r2, #15
    2644:	839a      	strh	r2, [r3, #28]
    USB->DEVICE.INTENSET.reg = USB_DEVICE_INTFLAG_WAKEUP;
    2646:	831a      	strh	r2, [r3, #24]
  dcd_event_t event = { .rhport = rhport, .event_id = eid };
    2648:	ad01      	add	r5, sp, #4
    264a:	3a04      	subs	r2, #4
    264c:	2100      	movs	r1, #0
    264e:	0028      	movs	r0, r5
    2650:	4b23      	ldr	r3, [pc, #140]	; (26e0 <dcd_int_handler+0xf4>)
    2652:	4798      	blx	r3
    2654:	2304      	movs	r3, #4
    2656:	706b      	strb	r3, [r5, #1]
  dcd_event_handler(&event, in_isr);
    2658:	2101      	movs	r1, #1
    265a:	0028      	movs	r0, r5
    265c:	4b21      	ldr	r3, [pc, #132]	; (26e4 <dcd_int_handler+0xf8>)
    265e:	4798      	blx	r3
    2660:	e7ce      	b.n	2600 <dcd_int_handler+0x14>
    USB->DEVICE.INTFLAG.reg = USB_DEVICE_INTFLAG_WAKEUP;
    2662:	4b1d      	ldr	r3, [pc, #116]	; (26d8 <dcd_int_handler+0xec>)
    2664:	2210      	movs	r2, #16
    2666:	839a      	strh	r2, [r3, #28]
    USB->DEVICE.INTENCLR.reg = USB_DEVICE_INTFLAG_WAKEUP;
    2668:	829a      	strh	r2, [r3, #20]
  dcd_event_t event = { .rhport = rhport, .event_id = eid };
    266a:	ad01      	add	r5, sp, #4
    266c:	3a04      	subs	r2, #4
    266e:	2100      	movs	r1, #0
    2670:	0028      	movs	r0, r5
    2672:	4b1b      	ldr	r3, [pc, #108]	; (26e0 <dcd_int_handler+0xf4>)
    2674:	4798      	blx	r3
    2676:	2305      	movs	r3, #5
    2678:	706b      	strb	r3, [r5, #1]
  dcd_event_handler(&event, in_isr);
    267a:	2101      	movs	r1, #1
    267c:	0028      	movs	r0, r5
    267e:	4b19      	ldr	r3, [pc, #100]	; (26e4 <dcd_int_handler+0xf8>)
    2680:	4798      	blx	r3
    2682:	e7bf      	b.n	2604 <dcd_int_handler+0x18>
    USB->DEVICE.INTFLAG.reg = USB_DEVICE_INTFLAG_EORST;
    2684:	4b14      	ldr	r3, [pc, #80]	; (26d8 <dcd_int_handler+0xec>)
    2686:	2208      	movs	r2, #8
    2688:	839a      	strh	r2, [r3, #28]
    USB->DEVICE.INTENCLR.reg = USB_DEVICE_INTFLAG_WAKEUP | USB_DEVICE_INTFLAG_SUSPEND;
    268a:	3209      	adds	r2, #9
    268c:	829a      	strh	r2, [r3, #20]
    bus_reset();
    268e:	4b16      	ldr	r3, [pc, #88]	; (26e8 <dcd_int_handler+0xfc>)
    2690:	4798      	blx	r3
  dcd_event_t event = { .rhport = rhport, .event_id = DCD_EVENT_BUS_RESET };
    2692:	ac01      	add	r4, sp, #4
    2694:	220c      	movs	r2, #12
    2696:	2100      	movs	r1, #0
    2698:	0020      	movs	r0, r4
    269a:	4b11      	ldr	r3, [pc, #68]	; (26e0 <dcd_int_handler+0xf4>)
    269c:	4798      	blx	r3
    269e:	2301      	movs	r3, #1
    26a0:	7063      	strb	r3, [r4, #1]
  dcd_event_handler(&event, in_isr);
    26a2:	2101      	movs	r1, #1
    26a4:	0020      	movs	r0, r4
    26a6:	4b0f      	ldr	r3, [pc, #60]	; (26e4 <dcd_int_handler+0xf8>)
    26a8:	4798      	blx	r3
    26aa:	e7ad      	b.n	2608 <dcd_int_handler+0x1c>
  dcd_event_t event = { .rhport = rhport, .event_id = DCD_EVENT_SETUP_RECEIVED };
    26ac:	ac01      	add	r4, sp, #4
    26ae:	220c      	movs	r2, #12
    26b0:	2100      	movs	r1, #0
    26b2:	0020      	movs	r0, r4
    26b4:	4b0a      	ldr	r3, [pc, #40]	; (26e0 <dcd_int_handler+0xf4>)
    26b6:	4798      	blx	r3
    26b8:	2306      	movs	r3, #6
    26ba:	7063      	strb	r3, [r4, #1]
  memcpy(&event.setup_received, setup, 8);
    26bc:	4a0b      	ldr	r2, [pc, #44]	; (26ec <dcd_int_handler+0x100>)
    26be:	ab02      	add	r3, sp, #8
    26c0:	ca03      	ldmia	r2!, {r0, r1}
    26c2:	c303      	stmia	r3!, {r0, r1}
  dcd_event_handler(&event, in_isr);
    26c4:	2101      	movs	r1, #1
    26c6:	0020      	movs	r0, r4
    26c8:	4b06      	ldr	r3, [pc, #24]	; (26e4 <dcd_int_handler+0xf8>)
    26ca:	4798      	blx	r3
    USB->DEVICE.DeviceEndpoint[0].EPINTFLAG.reg = USB_DEVICE_EPINTFLAG_RXSTP | USB_DEVICE_EPINTFLAG_TRCPT0;
    26cc:	2111      	movs	r1, #17
    26ce:	2308      	movs	r3, #8
    26d0:	33ff      	adds	r3, #255	; 0xff
    26d2:	4a01      	ldr	r2, [pc, #4]	; (26d8 <dcd_int_handler+0xec>)
    26d4:	54d1      	strb	r1, [r2, r3]
    26d6:	e79d      	b.n	2614 <dcd_int_handler+0x28>
    26d8:	41005000 	.word	0x41005000
    26dc:	00002515 	.word	0x00002515
    26e0:	0000325d 	.word	0x0000325d
    26e4:	00001611 	.word	0x00001611
    26e8:	0000219d 	.word	0x0000219d
    26ec:	20000978 	.word	0x20000978

000026f0 <_ZN6Serial11NoIntEnableEhb>:
//Definition of blank interrupt enable
void Serial::NoIntEnable(SERCOMHAL::SercomID peripheral_id, bool enable)
{
	(void) peripheral_id;
	(void) enable;
}
    26f0:	4770      	bx	lr
	...

000026f4 <_ZN6Serial9Int2ASCIIEmPA10_c>:
//Definition of Integer to ASCII converter
uint32_t Serial::Int2ASCII(uint32_t num, char (*result)[10])
{
    26f4:	b5f0      	push	{r4, r5, r6, r7, lr}
    26f6:	46c6      	mov	lr, r8
    26f8:	b500      	push	{lr}
    26fa:	b082      	sub	sp, #8
    26fc:	4688      	mov	r8, r1
	volatile uint32_t temp = num;
    26fe:	9001      	str	r0, [sp, #4]
	uint32_t multiplier = 1u;
	uint8_t numel = 1u;
    2700:	2601      	movs	r6, #1
	uint32_t multiplier = 1u;
    2702:	2401      	movs	r4, #1
	//find number of digits
	while(temp / multiplier > 9u)
    2704:	9801      	ldr	r0, [sp, #4]
    2706:	0021      	movs	r1, r4
    2708:	4b12      	ldr	r3, [pc, #72]	; (2754 <_ZN6Serial9Int2ASCIIEmPA10_c+0x60>)
    270a:	4798      	blx	r3
    270c:	2809      	cmp	r0, #9
    270e:	d906      	bls.n	271e <_ZN6Serial9Int2ASCIIEmPA10_c+0x2a>
	{
		multiplier *= 10u;
    2710:	00a3      	lsls	r3, r4, #2
    2712:	191c      	adds	r4, r3, r4
    2714:	0063      	lsls	r3, r4, #1
    2716:	001c      	movs	r4, r3
		numel++;
    2718:	3601      	adds	r6, #1
    271a:	b2f6      	uxtb	r6, r6
	while(temp / multiplier > 9u)
    271c:	e7f2      	b.n	2704 <_ZN6Serial9Int2ASCIIEmPA10_c+0x10>
    271e:	2500      	movs	r5, #0
	}
	//convert each digit to ASCII and add to buffer
	uint8_t i = 0u;
	while(i < numel)
    2720:	42b5      	cmp	r5, r6
    2722:	da12      	bge.n	274a <_ZN6Serial9Int2ASCIIEmPA10_c+0x56>
	{
		(*result)[i] = temp / multiplier + 48u;
    2724:	9801      	ldr	r0, [sp, #4]
    2726:	4f0b      	ldr	r7, [pc, #44]	; (2754 <_ZN6Serial9Int2ASCIIEmPA10_c+0x60>)
    2728:	0021      	movs	r1, r4
    272a:	47b8      	blx	r7
    272c:	3030      	adds	r0, #48	; 0x30
    272e:	4643      	mov	r3, r8
    2730:	5558      	strb	r0, [r3, r5]
		temp %= multiplier;
    2732:	9801      	ldr	r0, [sp, #4]
    2734:	0021      	movs	r1, r4
    2736:	4b08      	ldr	r3, [pc, #32]	; (2758 <_ZN6Serial9Int2ASCIIEmPA10_c+0x64>)
    2738:	4798      	blx	r3
    273a:	9101      	str	r1, [sp, #4]
		multiplier /= 10u;
    273c:	210a      	movs	r1, #10
    273e:	0020      	movs	r0, r4
    2740:	47b8      	blx	r7
    2742:	0004      	movs	r4, r0
		i++;
    2744:	3501      	adds	r5, #1
    2746:	b2ed      	uxtb	r5, r5
	while(i < numel)
    2748:	e7ea      	b.n	2720 <_ZN6Serial9Int2ASCIIEmPA10_c+0x2c>
	}
	return numel;
}
    274a:	0030      	movs	r0, r6
    274c:	b002      	add	sp, #8
    274e:	bc04      	pop	{r2}
    2750:	4690      	mov	r8, r2
    2752:	bdf0      	pop	{r4, r5, r6, r7, pc}
    2754:	00003069 	.word	0x00003069
    2758:	00003175 	.word	0x00003175

0000275c <_ZN6Serial12SerialBuffer5ResetEPcm>:
		 * \note You must call this before use if constructed without parameters.
		 * \sa GENERIC_BUFFER(), Clear()
		 */
		void ResetBuffer(T* arr, uint32_t arr_size)
		{
			fifo_buffer = arr;
    275c:	6041      	str	r1, [r0, #4]
			buffer_size = arr_size;
    275e:	6082      	str	r2, [r0, #8]
			buffer_avail = 0;
    2760:	2300      	movs	r3, #0
    2762:	60c3      	str	r3, [r0, #12]
			rd_index = 0;
    2764:	6103      	str	r3, [r0, #16]
			wr_index = 0;
    2766:	6143      	str	r3, [r0, #20]
}

void Serial::SerialBuffer::Reset(char * buf, uint32_t buf_size)
{
	buffer.ResetBuffer(buf, buf_size);
	index_shift = 1u;
    2768:	3301      	adds	r3, #1
    276a:	6183      	str	r3, [r0, #24]
}
    276c:	4770      	bx	lr
	...

00002770 <_ZN6Serial12SerialBufferC1EhPcm>:
Serial::SerialBuffer::SerialBuffer(SERCOMHAL::SercomID peripheral_id, char * buf, uint32_t buf_size)
    2770:	b570      	push	{r4, r5, r6, lr}
    2772:	0004      	movs	r4, r0
    2774:	0015      	movs	r5, r2
			fifo_buffer = arr;
    2776:	2000      	movs	r0, #0
    2778:	6060      	str	r0, [r4, #4]
			buffer_size = arr_size;
    277a:	60a0      	str	r0, [r4, #8]
			buffer_avail = 0;
    277c:	60e0      	str	r0, [r4, #12]
			rd_index = 0;
    277e:	6120      	str	r0, [r4, #16]
			wr_index = 0;
    2780:	6160      	str	r0, [r4, #20]
	sercom_id = peripheral_id;
    2782:	7021      	strb	r1, [r4, #0]
	Reset(buf, buf_size);
    2784:	001a      	movs	r2, r3
    2786:	0029      	movs	r1, r5
    2788:	0020      	movs	r0, r4
    278a:	4b02      	ldr	r3, [pc, #8]	; (2794 <_ZN6Serial12SerialBufferC1EhPcm+0x24>)
    278c:	4798      	blx	r3
}
    278e:	0020      	movs	r0, r4
    2790:	bd70      	pop	{r4, r5, r6, pc}
    2792:	46c0      	nop			; (mov r8, r8)
    2794:	0000275d 	.word	0x0000275d

00002798 <_ZN6Serial12SerialBuffer5ClearEv>:
			buffer_avail = 0;
    2798:	2300      	movs	r3, #0
    279a:	60c3      	str	r3, [r0, #12]
			rd_index = 0;
    279c:	6103      	str	r3, [r0, #16]
			wr_index = 0;
    279e:	6143      	str	r3, [r0, #20]

void Serial::SerialBuffer::Clear(void)
{
	buffer.Clear();
}
    27a0:	4770      	bx	lr
	...

000027a4 <_ZN6Serial12SerialBufferD1Ev>:
Serial::SerialBuffer::~SerialBuffer(void)
    27a4:	b510      	push	{r4, lr}
    27a6:	0004      	movs	r4, r0
	Clear();
    27a8:	4b01      	ldr	r3, [pc, #4]	; (27b0 <_ZN6Serial12SerialBufferD1Ev+0xc>)
    27aa:	4798      	blx	r3
}
    27ac:	0020      	movs	r0, r4
    27ae:	bd10      	pop	{r4, pc}
    27b0:	00002799 	.word	0x00002799

000027b4 <_ZN6Serial12SerialBuffer3PutEcPFvhbE>:

bool Serial::SerialBuffer::Put(char input, void (* int_func)(uint8_t, bool))
{
    27b4:	b570      	push	{r4, r5, r6, lr}
    27b6:	0004      	movs	r4, r0
    27b8:	000e      	movs	r6, r1
    27ba:	0015      	movs	r5, r2
	int_func(sercom_id, false);
    27bc:	7800      	ldrb	r0, [r0, #0]
    27be:	2100      	movs	r1, #0
    27c0:	4790      	blx	r2
		 * \sa Get()
		 */
		bool Put(T element)
		{
			bool success = false;
			if(buffer_avail < buffer_size)
    27c2:	68e3      	ldr	r3, [r4, #12]
    27c4:	68a2      	ldr	r2, [r4, #8]
    27c6:	4293      	cmp	r3, r2
    27c8:	d211      	bcs.n	27ee <_ZN6Serial12SerialBuffer3PutEcPFvhbE+0x3a>
			{
				fifo_buffer[wr_index] = element;
    27ca:	6863      	ldr	r3, [r4, #4]
    27cc:	6962      	ldr	r2, [r4, #20]
    27ce:	549e      	strb	r6, [r3, r2]
				buffer_avail++;
    27d0:	68e3      	ldr	r3, [r4, #12]
    27d2:	3301      	adds	r3, #1
    27d4:	60e3      	str	r3, [r4, #12]
				wr_index = (wr_index+1) % buffer_size;
    27d6:	6963      	ldr	r3, [r4, #20]
    27d8:	1c58      	adds	r0, r3, #1
    27da:	68a1      	ldr	r1, [r4, #8]
    27dc:	4b05      	ldr	r3, [pc, #20]	; (27f4 <_ZN6Serial12SerialBuffer3PutEcPFvhbE+0x40>)
    27de:	4798      	blx	r3
    27e0:	6161      	str	r1, [r4, #20]
				success = true;
    27e2:	2601      	movs	r6, #1
	bool success = buffer.Put(input);
	int_func(sercom_id, true);
    27e4:	7820      	ldrb	r0, [r4, #0]
    27e6:	2101      	movs	r1, #1
    27e8:	47a8      	blx	r5
	return success;
}
    27ea:	0030      	movs	r0, r6
    27ec:	bd70      	pop	{r4, r5, r6, pc}
			bool success = false;
    27ee:	2600      	movs	r6, #0
    27f0:	e7f8      	b.n	27e4 <_ZN6Serial12SerialBuffer3PutEcPFvhbE+0x30>
    27f2:	46c0      	nop			; (mov r8, r8)
    27f4:	00003175 	.word	0x00003175

000027f8 <_ZN6Serial12SerialBuffer3GetEPFvhbEPc>:

bool Serial::SerialBuffer::Get(void (* int_func)(uint8_t, bool), char * output)
{
    27f8:	b570      	push	{r4, r5, r6, lr}
    27fa:	0004      	movs	r4, r0
    27fc:	000e      	movs	r6, r1
    27fe:	0015      	movs	r5, r2
	int_func(sercom_id, false);
    2800:	7800      	ldrb	r0, [r0, #0]
    2802:	2100      	movs	r1, #0
    2804:	47b0      	blx	r6
		 * \sa Put(), Peek()
		 */
		bool Get(T * output = nullptr)
		{
			bool result = false;
			if(buffer_avail)
    2806:	68e3      	ldr	r3, [r4, #12]
    2808:	2b00      	cmp	r3, #0
    280a:	d01b      	beq.n	2844 <_ZN6Serial12SerialBuffer3GetEPFvhbEPc+0x4c>
			{
				result = true;
				if(output != nullptr) *output = fifo_buffer[rd_index];
    280c:	2d00      	cmp	r5, #0
    280e:	d003      	beq.n	2818 <_ZN6Serial12SerialBuffer3GetEPFvhbEPc+0x20>
    2810:	6863      	ldr	r3, [r4, #4]
    2812:	6922      	ldr	r2, [r4, #16]
    2814:	5c9b      	ldrb	r3, [r3, r2]
    2816:	702b      	strb	r3, [r5, #0]
				rd_index = (rd_index+1) % buffer_size;
    2818:	6923      	ldr	r3, [r4, #16]
    281a:	1c58      	adds	r0, r3, #1
    281c:	68a1      	ldr	r1, [r4, #8]
    281e:	4b0a      	ldr	r3, [pc, #40]	; (2848 <_ZN6Serial12SerialBuffer3GetEPFvhbEPc+0x50>)
    2820:	4798      	blx	r3
    2822:	6121      	str	r1, [r4, #16]
				buffer_avail--;
    2824:	68e3      	ldr	r3, [r4, #12]
    2826:	3b01      	subs	r3, #1
    2828:	60e3      	str	r3, [r4, #12]
				result = true;
    282a:	2501      	movs	r5, #1
	bool result = buffer.Get(output);
	if(result && index_shift) index_shift--;
    282c:	2d00      	cmp	r5, #0
    282e:	d004      	beq.n	283a <_ZN6Serial12SerialBuffer3GetEPFvhbEPc+0x42>
    2830:	69a3      	ldr	r3, [r4, #24]
    2832:	2b00      	cmp	r3, #0
    2834:	d001      	beq.n	283a <_ZN6Serial12SerialBuffer3GetEPFvhbEPc+0x42>
    2836:	3b01      	subs	r3, #1
    2838:	61a3      	str	r3, [r4, #24]
	int_func(sercom_id, true);
    283a:	7820      	ldrb	r0, [r4, #0]
    283c:	2101      	movs	r1, #1
    283e:	47b0      	blx	r6
	return result;
}
    2840:	0028      	movs	r0, r5
    2842:	bd70      	pop	{r4, r5, r6, pc}
			bool result = false;
    2844:	2500      	movs	r5, #0
    2846:	e7f1      	b.n	282c <_ZN6Serial12SerialBuffer3GetEPFvhbEPc+0x34>
    2848:	00003175 	.word	0x00003175

0000284c <_ZN6Serial12SerialBuffer9GetStringEPKcmbPFvhbE>:

bool Serial::SerialBuffer::GetString(const char *input, uint32_t shift, bool move_pointer, void (* int_func)(uint8_t, bool))
{
    284c:	b5f0      	push	{r4, r5, r6, r7, lr}
    284e:	46ce      	mov	lr, r9
    2850:	4647      	mov	r7, r8
    2852:	b580      	push	{r7, lr}
    2854:	b085      	sub	sp, #20
    2856:	0006      	movs	r6, r0
    2858:	000f      	movs	r7, r1
    285a:	4690      	mov	r8, r2
    285c:	9301      	str	r3, [sp, #4]
	bool has_string = false;
	//prevents checking after initialization or a previous string has been found until new character is received
	while(Get(int_func));
    285e:	2200      	movs	r2, #0
    2860:	990c      	ldr	r1, [sp, #48]	; 0x30
    2862:	0030      	movs	r0, r6
    2864:	4b2e      	ldr	r3, [pc, #184]	; (2920 <_ZN6Serial12SerialBuffer9GetStringEPKcmbPFvhbE+0xd4>)
    2866:	4798      	blx	r3
    2868:	1e04      	subs	r4, r0, #0
    286a:	d1f8      	bne.n	285e <_ZN6Serial12SerialBuffer9GetStringEPKcmbPFvhbE+0x12>
	if(!index_shift)
    286c:	69b3      	ldr	r3, [r6, #24]
    286e:	2b00      	cmp	r3, #0
    2870:	d12f      	bne.n	28d2 <_ZN6Serial12SerialBuffer9GetStringEPKcmbPFvhbE+0x86>
	{
		has_string = true;
		uint32_t numel = 0;
		//finds size of input string by detecting null character
		while(input[numel] != '\0') numel++;
    2872:	5cfa      	ldrb	r2, [r7, r3]
    2874:	2a00      	cmp	r2, #0
    2876:	d001      	beq.n	287c <_ZN6Serial12SerialBuffer9GetStringEPKcmbPFvhbE+0x30>
    2878:	3301      	adds	r3, #1
    287a:	e7fa      	b.n	2872 <_ZN6Serial12SerialBuffer9GetStringEPKcmbPFvhbE+0x26>
		{
			volatile T output = 0;
			if(buffer_avail) output = fifo_buffer[rd_index];
			return output;
		}
		uint32_t GetSize(void) const { return buffer_size; }				//!< Getter for size of array.
    287c:	68b2      	ldr	r2, [r6, #8]
    287e:	4694      	mov	ip, r2
			if(read_index != nullptr) *read_index = rd_index;
    2880:	6932      	ldr	r2, [r6, #16]
			return &(fifo_buffer[0]);
    2882:	6870      	ldr	r0, [r6, #4]
		uint32_t i = 0;
		uint32_t rd_index;
		uint32_t bsize = buffer.GetSize();
		char * arr_ref = buffer.GetRawElements(&rd_index);
		uint32_t reader = rd_index + ((shift > rd_index) * bsize) - shift;
    2884:	4542      	cmp	r2, r8
    2886:	4189      	sbcs	r1, r1
    2888:	4249      	negs	r1, r1
    288a:	4664      	mov	r4, ip
    288c:	4361      	muls	r1, r4
    288e:	1851      	adds	r1, r2, r1
    2890:	4642      	mov	r2, r8
    2892:	1a89      	subs	r1, r1, r2
		uint32_t i = 0;
    2894:	2200      	movs	r2, #0
		has_string = true;
    2896:	2401      	movs	r4, #1
    2898:	e008      	b.n	28ac <_ZN6Serial12SerialBuffer9GetStringEPKcmbPFvhbE+0x60>
		while(has_string && i < numel)
		{
			//iterates backwards in buffer and input string and checks if each element is equal to each other
			if(reader == 0u) reader = bsize - 1;
			else reader--;
    289a:	3901      	subs	r1, #1
			i++;
    289c:	3201      	adds	r2, #1
			has_string = (input[numel - i] == arr_ref[reader]);
    289e:	1a9c      	subs	r4, r3, r2
    28a0:	5d3c      	ldrb	r4, [r7, r4]
    28a2:	5c45      	ldrb	r5, [r0, r1]
    28a4:	1b64      	subs	r4, r4, r5
    28a6:	4265      	negs	r5, r4
    28a8:	4165      	adcs	r5, r4
    28aa:	b2ec      	uxtb	r4, r5
		while(has_string && i < numel)
    28ac:	2c00      	cmp	r4, #0
    28ae:	d006      	beq.n	28be <_ZN6Serial12SerialBuffer9GetStringEPKcmbPFvhbE+0x72>
    28b0:	4293      	cmp	r3, r2
    28b2:	d904      	bls.n	28be <_ZN6Serial12SerialBuffer9GetStringEPKcmbPFvhbE+0x72>
			if(reader == 0u) reader = bsize - 1;
    28b4:	2900      	cmp	r1, #0
    28b6:	d1f0      	bne.n	289a <_ZN6Serial12SerialBuffer9GetStringEPKcmbPFvhbE+0x4e>
    28b8:	4661      	mov	r1, ip
    28ba:	3901      	subs	r1, #1
    28bc:	e7ee      	b.n	289c <_ZN6Serial12SerialBuffer9GetStringEPKcmbPFvhbE+0x50>
		}
		if(has_string)
    28be:	2c00      	cmp	r4, #0
    28c0:	d007      	beq.n	28d2 <_ZN6Serial12SerialBuffer9GetStringEPKcmbPFvhbE+0x86>
		{
			index_shift = 1u;
    28c2:	2301      	movs	r3, #1
    28c4:	61b3      	str	r3, [r6, #24]
			if(move_pointer && shift > 0u)
    28c6:	9b01      	ldr	r3, [sp, #4]
    28c8:	2b00      	cmp	r3, #0
    28ca:	d002      	beq.n	28d2 <_ZN6Serial12SerialBuffer9GetStringEPKcmbPFvhbE+0x86>
    28cc:	4643      	mov	r3, r8
    28ce:	2b00      	cmp	r3, #0
    28d0:	d105      	bne.n	28de <_ZN6Serial12SerialBuffer9GetStringEPKcmbPFvhbE+0x92>
				int_func(sercom_id, true);
			}
		}
	}
	return has_string;
}
    28d2:	0020      	movs	r0, r4
    28d4:	b005      	add	sp, #20
    28d6:	bc0c      	pop	{r2, r3}
    28d8:	4690      	mov	r8, r2
    28da:	4699      	mov	r9, r3
    28dc:	bdf0      	pop	{r4, r5, r6, r7, pc}
				int_func(sercom_id, false);
    28de:	7830      	ldrb	r0, [r6, #0]
    28e0:	2100      	movs	r1, #0
    28e2:	9b0c      	ldr	r3, [sp, #48]	; 0x30
    28e4:	4798      	blx	r3
			volatile uint32_t true_shift = shift_size;
    28e6:	4643      	mov	r3, r8
    28e8:	9303      	str	r3, [sp, #12]
			else if(!increase && (shift_size > buffer_size))
    28ea:	68b0      	ldr	r0, [r6, #8]
    28ec:	4580      	cmp	r8, r0
    28ee:	d900      	bls.n	28f2 <_ZN6Serial12SerialBuffer9GetStringEPKcmbPFvhbE+0xa6>
				true_shift = buffer_size;
    28f0:	9003      	str	r0, [sp, #12]
				rd_index = rd_index + ((true_shift > rd_index) * buffer_size) - true_shift;	
    28f2:	6931      	ldr	r1, [r6, #16]
    28f4:	9a03      	ldr	r2, [sp, #12]
    28f6:	4291      	cmp	r1, r2
    28f8:	4192      	sbcs	r2, r2
    28fa:	4253      	negs	r3, r2
    28fc:	4343      	muls	r3, r0
    28fe:	18cb      	adds	r3, r1, r3
    2900:	9903      	ldr	r1, [sp, #12]
    2902:	1a5b      	subs	r3, r3, r1
    2904:	6133      	str	r3, [r6, #16]
				buffer_avail += true_shift;
    2906:	9b03      	ldr	r3, [sp, #12]
    2908:	68f2      	ldr	r2, [r6, #12]
    290a:	4694      	mov	ip, r2
    290c:	4463      	add	r3, ip
    290e:	60f3      	str	r3, [r6, #12]
				index_shift += shift;
    2910:	69b3      	ldr	r3, [r6, #24]
    2912:	4443      	add	r3, r8
    2914:	61b3      	str	r3, [r6, #24]
				int_func(sercom_id, true);
    2916:	7830      	ldrb	r0, [r6, #0]
    2918:	2101      	movs	r1, #1
    291a:	9b0c      	ldr	r3, [sp, #48]	; 0x30
    291c:	4798      	blx	r3
    291e:	e7d8      	b.n	28d2 <_ZN6Serial12SerialBuffer9GetStringEPKcmbPFvhbE+0x86>
    2920:	000027f9 	.word	0x000027f9

00002924 <_ZN6Serial12SerialBuffer13GetASCIIAsIntEPmPFvhbE>:

bool Serial::SerialBuffer::GetASCIIAsInt(uint32_t * output, void (* int_func)(uint8_t, bool))
{
    2924:	b5f0      	push	{r4, r5, r6, r7, lr}
    2926:	b083      	sub	sp, #12
    2928:	0006      	movs	r6, r0
    292a:	000f      	movs	r7, r1
    292c:	0014      	movs	r4, r2
	bool result = false;
	*output = 0u;
    292e:	2300      	movs	r3, #0
    2930:	600b      	str	r3, [r1, #0]
			volatile T output = 0;
    2932:	466a      	mov	r2, sp
    2934:	7193      	strb	r3, [r2, #6]
			if(buffer_avail) output = fifo_buffer[rd_index];
    2936:	68c3      	ldr	r3, [r0, #12]
    2938:	2b00      	cmp	r3, #0
    293a:	d004      	beq.n	2946 <_ZN6Serial12SerialBuffer13GetASCIIAsIntEPmPFvhbE+0x22>
    293c:	6843      	ldr	r3, [r0, #4]
    293e:	6902      	ldr	r2, [r0, #16]
    2940:	5c9a      	ldrb	r2, [r3, r2]
    2942:	466b      	mov	r3, sp
    2944:	719a      	strb	r2, [r3, #6]
			return output;
    2946:	466b      	mov	r3, sp
    2948:	799d      	ldrb	r5, [r3, #6]
    294a:	b2ed      	uxtb	r5, r5
	bool result = false;
    294c:	2000      	movs	r0, #0
    294e:	e002      	b.n	2956 <_ZN6Serial12SerialBuffer13GetASCIIAsIntEPmPFvhbE+0x32>
    2950:	466b      	mov	r3, sp
    2952:	79dd      	ldrb	r5, [r3, #7]
	unsigned char received = buffer.Peek();
	while(received > 47u && received < 58u)
	{
		result = true;
    2954:	2001      	movs	r0, #1
	while(received > 47u && received < 58u)
    2956:	002b      	movs	r3, r5
    2958:	3b30      	subs	r3, #48	; 0x30
    295a:	b2db      	uxtb	r3, r3
    295c:	2b09      	cmp	r3, #9
    295e:	d817      	bhi.n	2990 <_ZN6Serial12SerialBuffer13GetASCIIAsIntEPmPFvhbE+0x6c>
		Get(int_func);
    2960:	2200      	movs	r2, #0
    2962:	0021      	movs	r1, r4
    2964:	0030      	movs	r0, r6
    2966:	4b0b      	ldr	r3, [pc, #44]	; (2994 <_ZN6Serial12SerialBuffer13GetASCIIAsIntEPmPFvhbE+0x70>)
    2968:	4798      	blx	r3
		*output *= 10u;
    296a:	683b      	ldr	r3, [r7, #0]
    296c:	009a      	lsls	r2, r3, #2
    296e:	18d2      	adds	r2, r2, r3
    2970:	0053      	lsls	r3, r2, #1
		*output += received - 48u;
    2972:	18eb      	adds	r3, r5, r3
    2974:	3b30      	subs	r3, #48	; 0x30
    2976:	603b      	str	r3, [r7, #0]
			volatile T output = 0;
    2978:	2200      	movs	r2, #0
    297a:	466b      	mov	r3, sp
    297c:	71da      	strb	r2, [r3, #7]
			if(buffer_avail) output = fifo_buffer[rd_index];
    297e:	68f3      	ldr	r3, [r6, #12]
    2980:	2b00      	cmp	r3, #0
    2982:	d0e5      	beq.n	2950 <_ZN6Serial12SerialBuffer13GetASCIIAsIntEPmPFvhbE+0x2c>
    2984:	6873      	ldr	r3, [r6, #4]
    2986:	6932      	ldr	r2, [r6, #16]
    2988:	5c9a      	ldrb	r2, [r3, r2]
    298a:	466b      	mov	r3, sp
    298c:	71da      	strb	r2, [r3, #7]
    298e:	e7df      	b.n	2950 <_ZN6Serial12SerialBuffer13GetASCIIAsIntEPmPFvhbE+0x2c>
		received = buffer.Peek();
	}
	return result;
}
    2990:	b003      	add	sp, #12
    2992:	bdf0      	pop	{r4, r5, r6, r7, pc}
    2994:	000027f9 	.word	0x000027f9

00002998 <_ZN6Serial12SerialBuffer11GetIntParamEPmPKcchPFvhbE>:

bool Serial::SerialBuffer::GetIntParam(uint32_t * output, const char *input, char delimiter, uint8_t max_digits, void (* int_func)(uint8_t, bool))
{
    2998:	b5f0      	push	{r4, r5, r6, r7, lr}
    299a:	46de      	mov	lr, fp
    299c:	b500      	push	{lr}
    299e:	b088      	sub	sp, #32
    29a0:	9002      	str	r0, [sp, #8]
    29a2:	9104      	str	r1, [sp, #16]
    29a4:	9203      	str	r2, [sp, #12]
    29a6:	9305      	str	r3, [sp, #20]
    29a8:	ab0e      	add	r3, sp, #56	; 0x38
    29aa:	781b      	ldrb	r3, [r3, #0]
    29ac:	469b      	mov	fp, r3
    29ae:	9e0f      	ldr	r6, [sp, #60]	; 0x3c
	bool result = false;
	uint8_t i = 1u;
    29b0:	2501      	movs	r5, #1
    29b2:	e004      	b.n	29be <_ZN6Serial12SerialBuffer11GetIntParamEPmPKcchPFvhbE+0x26>
	while(!GetString(input, i, true, int_func) && i < max_digits+1u) i++;
    29b4:	2700      	movs	r7, #0
    29b6:	2f00      	cmp	r7, #0
    29b8:	d013      	beq.n	29e2 <_ZN6Serial12SerialBuffer11GetIntParamEPmPKcchPFvhbE+0x4a>
    29ba:	3501      	adds	r5, #1
    29bc:	b2ed      	uxtb	r5, r5
    29be:	002c      	movs	r4, r5
    29c0:	9600      	str	r6, [sp, #0]
    29c2:	2301      	movs	r3, #1
    29c4:	002a      	movs	r2, r5
    29c6:	9903      	ldr	r1, [sp, #12]
    29c8:	9802      	ldr	r0, [sp, #8]
    29ca:	4f26      	ldr	r7, [pc, #152]	; (2a64 <_ZN6Serial12SerialBuffer11GetIntParamEPmPKcchPFvhbE+0xcc>)
    29cc:	47b8      	blx	r7
    29ce:	2800      	cmp	r0, #0
    29d0:	d1f0      	bne.n	29b4 <_ZN6Serial12SerialBuffer11GetIntParamEPmPKcchPFvhbE+0x1c>
    29d2:	465b      	mov	r3, fp
    29d4:	3301      	adds	r3, #1
    29d6:	429d      	cmp	r5, r3
    29d8:	d301      	bcc.n	29de <_ZN6Serial12SerialBuffer11GetIntParamEPmPKcchPFvhbE+0x46>
    29da:	2700      	movs	r7, #0
    29dc:	e7eb      	b.n	29b6 <_ZN6Serial12SerialBuffer11GetIntParamEPmPKcchPFvhbE+0x1e>
    29de:	2701      	movs	r7, #1
    29e0:	e7e9      	b.n	29b6 <_ZN6Serial12SerialBuffer11GetIntParamEPmPKcchPFvhbE+0x1e>
	if(i<max_digits+1u)
    29e2:	465b      	mov	r3, fp
    29e4:	3301      	adds	r3, #1
    29e6:	429c      	cmp	r4, r3
    29e8:	d236      	bcs.n	2a58 <_ZN6Serial12SerialBuffer11GetIntParamEPmPKcchPFvhbE+0xc0>
		uint32_t GetSize(void) const { return buffer_size; }				//!< Getter for size of array.
    29ea:	9902      	ldr	r1, [sp, #8]
    29ec:	688a      	ldr	r2, [r1, #8]
			if(read_index != nullptr) *read_index = rd_index;
    29ee:	690b      	ldr	r3, [r1, #16]
			return &(fifo_buffer[0]);
    29f0:	684c      	ldr	r4, [r1, #4]
	{
		volatile uint32_t temp_index;
		uint32_t rd_index;
		uint32_t bsize = buffer.GetSize();
		char * arr_ref = buffer.GetRawElements(&rd_index);
		if(rd_index == 0u) temp_index = bsize - 1;
    29f2:	2b00      	cmp	r3, #0
    29f4:	d113      	bne.n	2a1e <_ZN6Serial12SerialBuffer11GetIntParamEPmPKcchPFvhbE+0x86>
    29f6:	3a01      	subs	r2, #1
    29f8:	9207      	str	r2, [sp, #28]
		else temp_index = rd_index - 1u;
		if(GetASCIIAsInt(output, int_func))
    29fa:	0032      	movs	r2, r6
    29fc:	9904      	ldr	r1, [sp, #16]
    29fe:	9802      	ldr	r0, [sp, #8]
    2a00:	4b19      	ldr	r3, [pc, #100]	; (2a68 <_ZN6Serial12SerialBuffer11GetIntParamEPmPKcchPFvhbE+0xd0>)
    2a02:	4798      	blx	r3
    2a04:	1e03      	subs	r3, r0, #0
    2a06:	d026      	beq.n	2a56 <_ZN6Serial12SerialBuffer11GetIntParamEPmPKcchPFvhbE+0xbe>
		{
			char read_delimiter;
			if(!delimiter || (delimiter && Get(int_func, &read_delimiter) && read_delimiter == delimiter))
    2a08:	9a05      	ldr	r2, [sp, #20]
    2a0a:	2a00      	cmp	r2, #0
    2a0c:	d10a      	bne.n	2a24 <_ZN6Serial12SerialBuffer11GetIntParamEPmPKcchPFvhbE+0x8c>
    2a0e:	2b00      	cmp	r3, #0
    2a10:	d01c      	beq.n	2a4c <_ZN6Serial12SerialBuffer11GetIntParamEPmPKcchPFvhbE+0xb4>
			{
				result = true;
				arr_ref[temp_index] = '\0';
    2a12:	9a07      	ldr	r2, [sp, #28]
    2a14:	18a4      	adds	r4, r4, r2
    2a16:	2200      	movs	r2, #0
    2a18:	7022      	strb	r2, [r4, #0]
				result = true;
    2a1a:	001f      	movs	r7, r3
    2a1c:	e01c      	b.n	2a58 <_ZN6Serial12SerialBuffer11GetIntParamEPmPKcchPFvhbE+0xc0>
		else temp_index = rd_index - 1u;
    2a1e:	3b01      	subs	r3, #1
    2a20:	9307      	str	r3, [sp, #28]
    2a22:	e7ea      	b.n	29fa <_ZN6Serial12SerialBuffer11GetIntParamEPmPKcchPFvhbE+0x62>
			if(!delimiter || (delimiter && Get(int_func, &read_delimiter) && read_delimiter == delimiter))
    2a24:	220b      	movs	r2, #11
    2a26:	ab04      	add	r3, sp, #16
    2a28:	469c      	mov	ip, r3
    2a2a:	4462      	add	r2, ip
    2a2c:	0031      	movs	r1, r6
    2a2e:	9802      	ldr	r0, [sp, #8]
    2a30:	4b0e      	ldr	r3, [pc, #56]	; (2a6c <_ZN6Serial12SerialBuffer11GetIntParamEPmPKcchPFvhbE+0xd4>)
    2a32:	4798      	blx	r3
    2a34:	1e03      	subs	r3, r0, #0
    2a36:	d0ea      	beq.n	2a0e <_ZN6Serial12SerialBuffer11GetIntParamEPmPKcchPFvhbE+0x76>
    2a38:	220b      	movs	r2, #11
    2a3a:	a904      	add	r1, sp, #16
    2a3c:	468c      	mov	ip, r1
    2a3e:	4462      	add	r2, ip
    2a40:	7812      	ldrb	r2, [r2, #0]
    2a42:	9905      	ldr	r1, [sp, #20]
    2a44:	4291      	cmp	r1, r2
    2a46:	d0e2      	beq.n	2a0e <_ZN6Serial12SerialBuffer11GetIntParamEPmPKcchPFvhbE+0x76>
    2a48:	003b      	movs	r3, r7
    2a4a:	e7e0      	b.n	2a0e <_ZN6Serial12SerialBuffer11GetIntParamEPmPKcchPFvhbE+0x76>
			} else {
				*output = '\0';
    2a4c:	2200      	movs	r2, #0
    2a4e:	9904      	ldr	r1, [sp, #16]
    2a50:	600a      	str	r2, [r1, #0]
	bool result = false;
    2a52:	001f      	movs	r7, r3
    2a54:	e000      	b.n	2a58 <_ZN6Serial12SerialBuffer11GetIntParamEPmPKcchPFvhbE+0xc0>
    2a56:	0007      	movs	r7, r0
			}
		}
	}
	return result;
}
    2a58:	0038      	movs	r0, r7
    2a5a:	b008      	add	sp, #32
    2a5c:	bc04      	pop	{r2}
    2a5e:	4693      	mov	fp, r2
    2a60:	bdf0      	pop	{r4, r5, r6, r7, pc}
    2a62:	46c0      	nop			; (mov r8, r8)
    2a64:	0000284d 	.word	0x0000284d
    2a68:	00002925 	.word	0x00002925
    2a6c:	000027f9 	.word	0x000027f9

00002a70 <_ZNK6Serial12SerialBuffer14GetBufferEmptyEv>:
		uint32_t GetSize(void) const { return buffer_size; }				//!< Getter for size of array.
    2a70:	6883      	ldr	r3, [r0, #8]
		uint32_t GetBufferAvailable(void) const { return buffer_avail; }	//!< Getter for length/number of elements available in buffer.
    2a72:	68c0      	ldr	r0, [r0, #12]
	return buffer.GetBufferAvailable();
}

uint32_t Serial::SerialBuffer::GetBufferEmpty(void) const
{
	return buffer.GetSize() - buffer.GetBufferAvailable();
    2a74:	1a18      	subs	r0, r3, r0
}
    2a76:	4770      	bx	lr

00002a78 <_ZNK6Serial12SerialBuffer14GetBufferStateEv>:
			
		BufferState GetBufferState(void) const								//!< Getter for buffer state (Empty, Full, NotEmptyNotFull)
		{
			if(!buffer_avail)
    2a78:	68c3      	ldr	r3, [r0, #12]
    2a7a:	2b00      	cmp	r3, #0
    2a7c:	d006      	beq.n	2a8c <_ZNK6Serial12SerialBuffer14GetBufferStateEv+0x14>
				return BufferState::Empty;
			if(buffer_avail == buffer_size)
    2a7e:	6882      	ldr	r2, [r0, #8]
    2a80:	4293      	cmp	r3, r2
    2a82:	d001      	beq.n	2a88 <_ZNK6Serial12SerialBuffer14GetBufferStateEv+0x10>
				return BufferState::Full;
			return BufferState::NotEmptyNotFull;
    2a84:	2002      	movs	r0, #2

GenericBuffer::BufferState Serial::SerialBuffer::GetBufferState(void) const
{
	return buffer.GetBufferState();
}
    2a86:	4770      	bx	lr
				return BufferState::Full;
    2a88:	2001      	movs	r0, #1
    2a8a:	e7fc      	b.n	2a86 <_ZNK6Serial12SerialBuffer14GetBufferStateEv+0xe>
				return BufferState::Empty;
    2a8c:	2000      	movs	r0, #0
    2a8e:	e7fa      	b.n	2a86 <_ZNK6Serial12SerialBuffer14GetBufferStateEv+0xe>

00002a90 <_ZN9SerialUSB15USBFeedIOClocksEv>:
#include "sam.h"

void SerialUSB::USBFeedIOClocks(void)
{
	//preset: 8MHz osc set and enabled, fed into clock generator 0
	NVMCTRL->CTRLB.bit.RWS = 1;
    2a90:	4931      	ldr	r1, [pc, #196]	; (2b58 <_ZN9SerialUSB15USBFeedIOClocksEv+0xc8>)
    2a92:	684a      	ldr	r2, [r1, #4]
    2a94:	231e      	movs	r3, #30
    2a96:	439a      	bics	r2, r3
    2a98:	3b1c      	subs	r3, #28
    2a9a:	4313      	orrs	r3, r2
    2a9c:	604b      	str	r3, [r1, #4]
	
	while(!SYSCTRL->PCLKSR.bit.DFLLRDY);
    2a9e:	4b2f      	ldr	r3, [pc, #188]	; (2b5c <_ZN9SerialUSB15USBFeedIOClocksEv+0xcc>)
    2aa0:	68db      	ldr	r3, [r3, #12]
    2aa2:	06db      	lsls	r3, r3, #27
    2aa4:	d5fb      	bpl.n	2a9e <_ZN9SerialUSB15USBFeedIOClocksEv+0xe>
	SYSCTRL->DFLLCTRL.reg = SYSCTRL_DFLLCTRL_ENABLE;
    2aa6:	2202      	movs	r2, #2
    2aa8:	4b2c      	ldr	r3, [pc, #176]	; (2b5c <_ZN9SerialUSB15USBFeedIOClocksEv+0xcc>)
    2aaa:	849a      	strh	r2, [r3, #36]	; 0x24
	while(!SYSCTRL->PCLKSR.bit.DFLLRDY);
    2aac:	4b2b      	ldr	r3, [pc, #172]	; (2b5c <_ZN9SerialUSB15USBFeedIOClocksEv+0xcc>)
    2aae:	68db      	ldr	r3, [r3, #12]
    2ab0:	06db      	lsls	r3, r3, #27
    2ab2:	d5fb      	bpl.n	2aac <_ZN9SerialUSB15USBFeedIOClocksEv+0x1c>
	
	uint32_t coarse =
		((*(uint32_t*)FUSES_DFLL48M_COARSE_CAL_ADDR) & FUSES_DFLL48M_COARSE_CAL_Msk) >> FUSES_DFLL48M_COARSE_CAL_Pos;
    2ab4:	4b2a      	ldr	r3, [pc, #168]	; (2b60 <_ZN9SerialUSB15USBFeedIOClocksEv+0xd0>)
    2ab6:	681a      	ldr	r2, [r3, #0]
    2ab8:	0e92      	lsrs	r2, r2, #26
	uint32_t fine =
		((*(uint32_t*)FUSES_DFLL48M_FINE_CAL_ADDR) & FUSES_DFLL48M_FINE_CAL_Msk) >> FUSES_DFLL48M_FINE_CAL_Pos;
    2aba:	4b2a      	ldr	r3, [pc, #168]	; (2b64 <_ZN9SerialUSB15USBFeedIOClocksEv+0xd4>)
    2abc:	681b      	ldr	r3, [r3, #0]
    2abe:	059b      	lsls	r3, r3, #22
    2ac0:	0d9b      	lsrs	r3, r3, #22
	SYSCTRL->DFLLVAL.reg = SYSCTRL_DFLLVAL_COARSE(coarse) | SYSCTRL_DFLLVAL_FINE(fine);
    2ac2:	0292      	lsls	r2, r2, #10
    2ac4:	4313      	orrs	r3, r2
    2ac6:	4a25      	ldr	r2, [pc, #148]	; (2b5c <_ZN9SerialUSB15USBFeedIOClocksEv+0xcc>)
    2ac8:	6293      	str	r3, [r2, #40]	; 0x28
	while (!SYSCTRL->PCLKSR.bit.DFLLRDY);
    2aca:	4b24      	ldr	r3, [pc, #144]	; (2b5c <_ZN9SerialUSB15USBFeedIOClocksEv+0xcc>)
    2acc:	68db      	ldr	r3, [r3, #12]
    2ace:	06db      	lsls	r3, r3, #27
    2ad0:	d5fb      	bpl.n	2aca <_ZN9SerialUSB15USBFeedIOClocksEv+0x3a>
	
	SYSCTRL->DFLLCTRL.reg |= SYSCTRL_DFLLCTRL_USBCRM | SYSCTRL_DFLLCTRL_CCDIS;
    2ad2:	4b22      	ldr	r3, [pc, #136]	; (2b5c <_ZN9SerialUSB15USBFeedIOClocksEv+0xcc>)
    2ad4:	8c9a      	ldrh	r2, [r3, #36]	; 0x24
    2ad6:	2190      	movs	r1, #144	; 0x90
    2ad8:	0049      	lsls	r1, r1, #1
    2ada:	430a      	orrs	r2, r1
    2adc:	849a      	strh	r2, [r3, #36]	; 0x24
	SYSCTRL->DFLLMUL.reg =  SYSCTRL_DFLLMUL_MUL(48000) | SYSCTRL_DFLLMUL_FSTEP(1) | SYSCTRL_DFLLMUL_CSTEP(1);
    2ade:	4a22      	ldr	r2, [pc, #136]	; (2b68 <_ZN9SerialUSB15USBFeedIOClocksEv+0xd8>)
    2ae0:	62da      	str	r2, [r3, #44]	; 0x2c
	
	/* Closed loop mode */
	SYSCTRL->DFLLCTRL.bit.MODE = 1;
    2ae2:	8c9a      	ldrh	r2, [r3, #36]	; 0x24
    2ae4:	2104      	movs	r1, #4
    2ae6:	430a      	orrs	r2, r1
    2ae8:	849a      	strh	r2, [r3, #36]	; 0x24
	/* Enable the DFLL */
	SYSCTRL->DFLLCTRL.bit.ENABLE = 1;
    2aea:	8c9a      	ldrh	r2, [r3, #36]	; 0x24
    2aec:	2102      	movs	r1, #2
    2aee:	430a      	orrs	r2, r1
    2af0:	849a      	strh	r2, [r3, #36]	; 0x24
	while (!SYSCTRL->PCLKSR.bit.DFLLRDY);
    2af2:	4b1a      	ldr	r3, [pc, #104]	; (2b5c <_ZN9SerialUSB15USBFeedIOClocksEv+0xcc>)
    2af4:	68db      	ldr	r3, [r3, #12]
    2af6:	06db      	lsls	r3, r3, #27
    2af8:	d5fb      	bpl.n	2af2 <_ZN9SerialUSB15USBFeedIOClocksEv+0x62>
	
	GCLK->GENCTRL.reg = GCLK_GENCTRL_ID(0) | GCLK_GENCTRL_SRC(GCLK_SOURCE_DFLL48M) | GCLK_GENCTRL_IDC | GCLK_GENCTRL_GENEN;
    2afa:	4a1c      	ldr	r2, [pc, #112]	; (2b6c <_ZN9SerialUSB15USBFeedIOClocksEv+0xdc>)
    2afc:	4b1c      	ldr	r3, [pc, #112]	; (2b70 <_ZN9SerialUSB15USBFeedIOClocksEv+0xe0>)
    2afe:	605a      	str	r2, [r3, #4]
	while(GCLK->STATUS.bit.SYNCBUSY);
    2b00:	4b1b      	ldr	r3, [pc, #108]	; (2b70 <_ZN9SerialUSB15USBFeedIOClocksEv+0xe0>)
    2b02:	785b      	ldrb	r3, [r3, #1]
    2b04:	09db      	lsrs	r3, r3, #7
    2b06:	d1fb      	bne.n	2b00 <_ZN9SerialUSB15USBFeedIOClocksEv+0x70>

	PM->APBBMASK.bit.USB_ = 0x1u;
    2b08:	4b1a      	ldr	r3, [pc, #104]	; (2b74 <_ZN9SerialUSB15USBFeedIOClocksEv+0xe4>)
    2b0a:	69d9      	ldr	r1, [r3, #28]
    2b0c:	2220      	movs	r2, #32
    2b0e:	430a      	orrs	r2, r1
    2b10:	61da      	str	r2, [r3, #28]
	PM->AHBMASK.bit.USB_ = 0x1u;
    2b12:	6959      	ldr	r1, [r3, #20]
    2b14:	2240      	movs	r2, #64	; 0x40
    2b16:	430a      	orrs	r2, r1
    2b18:	615a      	str	r2, [r3, #20]
	GCLK->CLKCTRL.reg = GCLK_CLKCTRL_CLKEN | GCLK_CLKCTRL_GEN_GCLK0 | GCLK_CLKCTRL_ID_USB;
    2b1a:	4a17      	ldr	r2, [pc, #92]	; (2b78 <_ZN9SerialUSB15USBFeedIOClocksEv+0xe8>)
    2b1c:	4b14      	ldr	r3, [pc, #80]	; (2b70 <_ZN9SerialUSB15USBFeedIOClocksEv+0xe0>)
    2b1e:	805a      	strh	r2, [r3, #2]
	while (GCLK->STATUS.bit.SYNCBUSY);
    2b20:	4b13      	ldr	r3, [pc, #76]	; (2b70 <_ZN9SerialUSB15USBFeedIOClocksEv+0xe0>)
    2b22:	785b      	ldrb	r3, [r3, #1]
    2b24:	09db      	lsrs	r3, r3, #7
    2b26:	d1fb      	bne.n	2b20 <_ZN9SerialUSB15USBFeedIOClocksEv+0x90>
	PORT->Group[0].DIRSET.reg = 0x1u << 23u;
    2b28:	4b14      	ldr	r3, [pc, #80]	; (2b7c <_ZN9SerialUSB15USBFeedIOClocksEv+0xec>)
    2b2a:	2280      	movs	r2, #128	; 0x80
    2b2c:	0412      	lsls	r2, r2, #16
    2b2e:	609a      	str	r2, [r3, #8]
	PORT->Group[0].DIRSET.reg = 0x1u << 24u;
    2b30:	2280      	movs	r2, #128	; 0x80
    2b32:	0452      	lsls	r2, r2, #17
    2b34:	609a      	str	r2, [r3, #8]
	PORT->Group[0].DIRSET.reg = 0x1u << 25u;
    2b36:	2280      	movs	r2, #128	; 0x80
    2b38:	0492      	lsls	r2, r2, #18
    2b3a:	609a      	str	r2, [r3, #8]
	PORT->Group[0].PMUX[11].reg = PORT_PMUX_PMUXO(6u);
    2b3c:	2160      	movs	r1, #96	; 0x60
    2b3e:	223b      	movs	r2, #59	; 0x3b
    2b40:	5499      	strb	r1, [r3, r2]
	PORT->Group[0].PINCFG[23].reg = PORT_PINCFG_PMUXEN;
    2b42:	3a3a      	subs	r2, #58	; 0x3a
    2b44:	3909      	subs	r1, #9
    2b46:	545a      	strb	r2, [r3, r1]
	PORT->Group[0].PMUX[12].reg = PORT_PMUX_PMUXO(6u) | PORT_PMUX_PMUXE(6u);
    2b48:	2066      	movs	r0, #102	; 0x66
    2b4a:	391b      	subs	r1, #27
    2b4c:	5458      	strb	r0, [r3, r1]
	PORT->Group[0].PINCFG[24].reg = PORT_PINCFG_PMUXEN;
    2b4e:	311c      	adds	r1, #28
    2b50:	545a      	strb	r2, [r3, r1]
	PORT->Group[0].PINCFG[25].reg = PORT_PINCFG_PMUXEN;
    2b52:	3101      	adds	r1, #1
    2b54:	545a      	strb	r2, [r3, r1]
}
    2b56:	4770      	bx	lr
    2b58:	41004000 	.word	0x41004000
    2b5c:	40000800 	.word	0x40000800
    2b60:	00806024 	.word	0x00806024
    2b64:	00806028 	.word	0x00806028
    2b68:	0401bb80 	.word	0x0401bb80
    2b6c:	00030700 	.word	0x00030700
    2b70:	40000c00 	.word	0x40000c00
    2b74:	40000400 	.word	0x40000400
    2b78:	00004006 	.word	0x00004006
    2b7c:	41004400 	.word	0x41004400

00002b80 <_ZN9SerialUSB13USBControllerC1Ev>:
void SerialUSB::USBFeedIOClocks(void) {}
void SerialUSB::ResetUSB(void) {}
#endif

//Definition of Controller Class
SerialUSB::USBController::USBController(void)
    2b80:	b570      	push	{r4, r5, r6, lr}
    2b82:	0004      	movs	r4, r0
    2b84:	2300      	movs	r3, #0
    2b86:	2200      	movs	r2, #0
    2b88:	2100      	movs	r1, #0
    2b8a:	4d04      	ldr	r5, [pc, #16]	; (2b9c <_ZN9SerialUSB13USBControllerC1Ev+0x1c>)
    2b8c:	47a8      	blx	r5
{
	usb_on = false;
    2b8e:	2300      	movs	r3, #0
    2b90:	7723      	strb	r3, [r4, #28]
	detached = true;
    2b92:	3301      	adds	r3, #1
    2b94:	7763      	strb	r3, [r4, #29]
	//ResetUSB();
}
    2b96:	0020      	movs	r0, r4
    2b98:	bd70      	pop	{r4, r5, r6, pc}
    2b9a:	46c0      	nop			; (mov r8, r8)
    2b9c:	00002771 	.word	0x00002771

00002ba0 <_ZN9SerialUSB13USBController11ResetBufferEPcm>:
		usb_on = false;
	}
}

void SerialUSB::USBController::ResetBuffer(char * buf, uint32_t buf_size)
{
    2ba0:	b510      	push	{r4, lr}
	usb_buffer.Reset(buf, buf_size);
    2ba2:	4b01      	ldr	r3, [pc, #4]	; (2ba8 <_ZN9SerialUSB13USBController11ResetBufferEPcm+0x8>)
    2ba4:	4798      	blx	r3
}
    2ba6:	bd10      	pop	{r4, pc}
    2ba8:	0000275d 	.word	0x0000275d

00002bac <_ZN9SerialUSB13USBController12ClearBuffersEbb>:

void SerialUSB::USBController::ClearBuffers(bool clear_tx, bool clear_rx)
{
    2bac:	b570      	push	{r4, r5, r6, lr}
    2bae:	0005      	movs	r5, r0
    2bb0:	0014      	movs	r4, r2
	if(clear_tx) tud_cdc_write_clear();
    2bb2:	2900      	cmp	r1, #0
    2bb4:	d102      	bne.n	2bbc <_ZN9SerialUSB13USBController12ClearBuffersEbb+0x10>
	if(clear_rx) usb_buffer.Clear();
    2bb6:	2c00      	cmp	r4, #0
    2bb8:	d104      	bne.n	2bc4 <_ZN9SerialUSB13USBController12ClearBuffersEbb+0x18>
}
    2bba:	bd70      	pop	{r4, r5, r6, pc}
  return tud_cdc_n_write_available(0);
}

static inline bool tud_cdc_write_clear(void)
{
  return tud_cdc_n_write_clear(0);
    2bbc:	2000      	movs	r0, #0
    2bbe:	4b03      	ldr	r3, [pc, #12]	; (2bcc <_ZN9SerialUSB13USBController12ClearBuffersEbb+0x20>)
    2bc0:	4798      	blx	r3
    2bc2:	e7f8      	b.n	2bb6 <_ZN9SerialUSB13USBController12ClearBuffersEbb+0xa>
	if(clear_rx) usb_buffer.Clear();
    2bc4:	0028      	movs	r0, r5
    2bc6:	4b02      	ldr	r3, [pc, #8]	; (2bd0 <_ZN9SerialUSB13USBController12ClearBuffersEbb+0x24>)
    2bc8:	4798      	blx	r3
}
    2bca:	e7f6      	b.n	2bba <_ZN9SerialUSB13USBController12ClearBuffersEbb+0xe>
    2bcc:	00000799 	.word	0x00000799
    2bd0:	00002799 	.word	0x00002799

00002bd4 <_ZN9SerialUSB13USBController3ISREv>:

void SerialUSB::USBController::ISR(void)
{
    2bd4:	b510      	push	{r4, lr}
	#if (CFG_TUSB_MCU != OPT_MCU_NONE)
	tud_int_handler(0);
    2bd6:	2000      	movs	r0, #0
    2bd8:	4b01      	ldr	r3, [pc, #4]	; (2be0 <_ZN9SerialUSB13USBController3ISREv+0xc>)
    2bda:	4798      	blx	r3
	#endif
}
    2bdc:	bd10      	pop	{r4, pc}
    2bde:	46c0      	nop			; (mov r8, r8)
    2be0:	000025ed 	.word	0x000025ed

00002be4 <_ZN9SerialUSB13USBController8TransmitEc>:
		tud_task();
	}
}

bool SerialUSB::USBController::Transmit(char input)
{
    2be4:	b500      	push	{lr}
    2be6:	b083      	sub	sp, #12
	bool success = false;
	if(usb_on) success = tud_cdc_write_char(input);
    2be8:	7f00      	ldrb	r0, [r0, #28]
    2bea:	2800      	cmp	r0, #0
    2bec:	d101      	bne.n	2bf2 <_ZN9SerialUSB13USBController8TransmitEc+0xe>
	return success;
}
    2bee:	b003      	add	sp, #12
    2bf0:	bd00      	pop	{pc}
    2bf2:	466b      	mov	r3, sp
    2bf4:	71d9      	strb	r1, [r3, #7]
    2bf6:	3307      	adds	r3, #7
  return tud_cdc_n_write(itf, &ch, 1);
    2bf8:	2201      	movs	r2, #1
    2bfa:	0019      	movs	r1, r3
    2bfc:	2000      	movs	r0, #0
    2bfe:	4b03      	ldr	r3, [pc, #12]	; (2c0c <_ZN9SerialUSB13USBController8TransmitEc+0x28>)
    2c00:	4798      	blx	r3
	if(usb_on) success = tud_cdc_write_char(input);
    2c02:	1e43      	subs	r3, r0, #1
    2c04:	4198      	sbcs	r0, r3
    2c06:	b2c0      	uxtb	r0, r0
    2c08:	e7f1      	b.n	2bee <_ZN9SerialUSB13USBController8TransmitEc+0xa>
    2c0a:	46c0      	nop			; (mov r8, r8)
    2c0c:	00000755 	.word	0x00000755

00002c10 <_ZN9SerialUSB13USBController14TransmitPacketEPKcm>:
	if(usb_on) received = usb_buffer.Get(&(Serial::NoIntEnable), output);
	return received;
}

bool SerialUSB::USBController::TransmitPacket(const char * input, uint32_t num_bytes)
{
    2c10:	b570      	push	{r4, r5, r6, lr}
    2c12:	0014      	movs	r4, r2
	bool success = false;
	if(usb_on)
    2c14:	7f00      	ldrb	r0, [r0, #28]
    2c16:	2800      	cmp	r0, #0
    2c18:	d100      	bne.n	2c1c <_ZN9SerialUSB13USBController14TransmitPacketEPKcm+0xc>
		uint32_t count = tud_cdc_write(input, num_bytes);
		tud_cdc_write_flush();
		success = count == num_bytes;
	}
	return success;
}
    2c1a:	bd70      	pop	{r4, r5, r6, pc}
  return tud_cdc_n_write(0, buffer, bufsize);
    2c1c:	2000      	movs	r0, #0
    2c1e:	4b05      	ldr	r3, [pc, #20]	; (2c34 <_ZN9SerialUSB13USBController14TransmitPacketEPKcm+0x24>)
    2c20:	4798      	blx	r3
    2c22:	0005      	movs	r5, r0
  return tud_cdc_n_write_flush(0);
    2c24:	2000      	movs	r0, #0
    2c26:	4b04      	ldr	r3, [pc, #16]	; (2c38 <_ZN9SerialUSB13USBController14TransmitPacketEPKcm+0x28>)
    2c28:	4798      	blx	r3
		success = count == num_bytes;
    2c2a:	1b64      	subs	r4, r4, r5
    2c2c:	4260      	negs	r0, r4
    2c2e:	4160      	adcs	r0, r4
    2c30:	b2c0      	uxtb	r0, r0
    2c32:	e7f2      	b.n	2c1a <_ZN9SerialUSB13USBController14TransmitPacketEPKcm+0xa>
    2c34:	00000755 	.word	0x00000755
    2c38:	00000685 	.word	0x00000685

00002c3c <_ZN9SerialUSB13USBController14TransmitStringEPKc>:

uint32_t SerialUSB::USBController::TransmitString(const char *input)
{
    2c3c:	b510      	push	{r4, lr}
    2c3e:	000c      	movs	r4, r1
	uint32_t count = 0;
	if(usb_on)
    2c40:	7f03      	ldrb	r3, [r0, #28]
    2c42:	2b00      	cmp	r3, #0
    2c44:	d102      	bne.n	2c4c <_ZN9SerialUSB13USBController14TransmitStringEPKc+0x10>
	uint32_t count = 0;
    2c46:	2400      	movs	r4, #0
	{
		count = tud_cdc_write_str(input);
		tud_cdc_write_flush();
	}
	return count;
}
    2c48:	0020      	movs	r0, r4
    2c4a:	bd10      	pop	{r4, pc}
  return tud_cdc_n_write(itf, str, strlen(str));
    2c4c:	0008      	movs	r0, r1
    2c4e:	4b06      	ldr	r3, [pc, #24]	; (2c68 <_ZN9SerialUSB13USBController14TransmitStringEPKc+0x2c>)
    2c50:	4798      	blx	r3
    2c52:	0002      	movs	r2, r0
    2c54:	0021      	movs	r1, r4
    2c56:	2000      	movs	r0, #0
    2c58:	4b04      	ldr	r3, [pc, #16]	; (2c6c <_ZN9SerialUSB13USBController14TransmitStringEPKc+0x30>)
    2c5a:	4798      	blx	r3
    2c5c:	0004      	movs	r4, r0
  return tud_cdc_n_write_flush(0);
    2c5e:	2000      	movs	r0, #0
    2c60:	4b03      	ldr	r3, [pc, #12]	; (2c70 <_ZN9SerialUSB13USBController14TransmitStringEPKc+0x34>)
    2c62:	4798      	blx	r3
    2c64:	e7f0      	b.n	2c48 <_ZN9SerialUSB13USBController14TransmitStringEPKc+0xc>
    2c66:	46c0      	nop			; (mov r8, r8)
    2c68:	000032f1 	.word	0x000032f1
    2c6c:	00000755 	.word	0x00000755
    2c70:	00000685 	.word	0x00000685

00002c74 <_ZN9SerialUSB13USBController13ReceiveStringEPKcmb>:

bool SerialUSB::USBController::ReceiveString(const char *input, uint32_t shift, bool move_pointer)
{
    2c74:	b510      	push	{r4, lr}
    2c76:	b082      	sub	sp, #8
	return usb_buffer.GetString(input, shift, move_pointer, &(Serial::NoIntEnable));
    2c78:	4c02      	ldr	r4, [pc, #8]	; (2c84 <_ZN9SerialUSB13USBController13ReceiveStringEPKcmb+0x10>)
    2c7a:	9400      	str	r4, [sp, #0]
    2c7c:	4c02      	ldr	r4, [pc, #8]	; (2c88 <_ZN9SerialUSB13USBController13ReceiveStringEPKcmb+0x14>)
    2c7e:	47a0      	blx	r4
}
    2c80:	b002      	add	sp, #8
    2c82:	bd10      	pop	{r4, pc}
    2c84:	000026f1 	.word	0x000026f1
    2c88:	0000284d 	.word	0x0000284d

00002c8c <_ZN9SerialUSB13USBController11TransmitIntEm>:

bool SerialUSB::USBController::TransmitInt(uint32_t input)
{
    2c8c:	b510      	push	{r4, lr}
    2c8e:	b084      	sub	sp, #16
    2c90:	0004      	movs	r4, r0
    2c92:	0008      	movs	r0, r1
	char packet[10];
	uint32_t numel = Serial::Int2ASCII(input, &(packet));
    2c94:	a901      	add	r1, sp, #4
    2c96:	4b04      	ldr	r3, [pc, #16]	; (2ca8 <_ZN9SerialUSB13USBController11TransmitIntEm+0x1c>)
    2c98:	4798      	blx	r3
    2c9a:	0002      	movs	r2, r0
	return TransmitPacket(packet, numel);
    2c9c:	a901      	add	r1, sp, #4
    2c9e:	0020      	movs	r0, r4
    2ca0:	4b02      	ldr	r3, [pc, #8]	; (2cac <_ZN9SerialUSB13USBController11TransmitIntEm+0x20>)
    2ca2:	4798      	blx	r3
}
    2ca4:	b004      	add	sp, #16
    2ca6:	bd10      	pop	{r4, pc}
    2ca8:	000026f5 	.word	0x000026f5
    2cac:	00002c11 	.word	0x00002c11

00002cb0 <_ZN9SerialUSB13USBController12ReceiveParamEPmPKcch>:
{
	return usb_buffer.GetASCIIAsInt(output, &(Serial::NoIntEnable));
}

bool SerialUSB::USBController::ReceiveParam(uint32_t * output, const char *input, char delimiter, uint8_t max_digits)
{
    2cb0:	b530      	push	{r4, r5, lr}
    2cb2:	b083      	sub	sp, #12
    2cb4:	ac06      	add	r4, sp, #24
    2cb6:	7824      	ldrb	r4, [r4, #0]
	return usb_buffer.GetIntParam(output, input, delimiter, max_digits, &(Serial::NoIntEnable));
    2cb8:	4d03      	ldr	r5, [pc, #12]	; (2cc8 <_ZN9SerialUSB13USBController12ReceiveParamEPmPKcch+0x18>)
    2cba:	9501      	str	r5, [sp, #4]
    2cbc:	9400      	str	r4, [sp, #0]
    2cbe:	4c03      	ldr	r4, [pc, #12]	; (2ccc <_ZN9SerialUSB13USBController12ReceiveParamEPmPKcch+0x1c>)
    2cc0:	47a0      	blx	r4
}
    2cc2:	b003      	add	sp, #12
    2cc4:	bd30      	pop	{r4, r5, pc}
    2cc6:	46c0      	nop			; (mov r8, r8)
    2cc8:	000026f1 	.word	0x000026f1
    2ccc:	00002999 	.word	0x00002999

00002cd0 <_ZN9SerialUSB13USBController9PutBufferEc>:

//private helper function
void SerialUSB::USBController::PutBuffer(char input)
{
    2cd0:	b510      	push	{r4, lr}
	usb_buffer.Put(input, &(Serial::NoIntEnable));
    2cd2:	4a02      	ldr	r2, [pc, #8]	; (2cdc <_ZN9SerialUSB13USBController9PutBufferEc+0xc>)
    2cd4:	4b02      	ldr	r3, [pc, #8]	; (2ce0 <_ZN9SerialUSB13USBController9PutBufferEc+0x10>)
    2cd6:	4798      	blx	r3
}
    2cd8:	bd10      	pop	{r4, pc}
    2cda:	46c0      	nop			; (mov r8, r8)
    2cdc:	000026f1 	.word	0x000026f1
    2ce0:	000027b5 	.word	0x000027b5

00002ce4 <_ZN9SerialUSB13USBController4TaskEb>:
{
    2ce4:	b5f0      	push	{r4, r5, r6, r7, lr}
    2ce6:	46d6      	mov	lr, sl
    2ce8:	4647      	mov	r7, r8
    2cea:	b580      	push	{r7, lr}
    2cec:	b083      	sub	sp, #12
    2cee:	af00      	add	r7, sp, #0
    2cf0:	0005      	movs	r5, r0
    2cf2:	6079      	str	r1, [r7, #4]
	if(usb_on)
    2cf4:	7f04      	ldrb	r4, [r0, #28]
    2cf6:	2c00      	cmp	r4, #0
    2cf8:	d105      	bne.n	2d06 <_ZN9SerialUSB13USBController4TaskEb+0x22>
}
    2cfa:	46bd      	mov	sp, r7
    2cfc:	b003      	add	sp, #12
    2cfe:	bc0c      	pop	{r2, r3}
    2d00:	4690      	mov	r8, r2
    2d02:	469a      	mov	sl, r3
    2d04:	bdf0      	pop	{r4, r5, r6, r7, pc}
  return tud_cdc_n_available(0);
    2d06:	2000      	movs	r0, #0
    2d08:	4b1e      	ldr	r3, [pc, #120]	; (2d84 <_ZN9SerialUSB13USBController4TaskEb+0xa0>)
    2d0a:	4798      	blx	r3
		if(tud_cdc_available() && usb_buffer.GetBufferState() != GenericBuffer::BufferState::Full)
    2d0c:	2800      	cmp	r0, #0
    2d0e:	d108      	bne.n	2d22 <_ZN9SerialUSB13USBController4TaskEb+0x3e>
    2d10:	2400      	movs	r4, #0
    2d12:	2c00      	cmp	r4, #0
    2d14:	d10c      	bne.n	2d30 <_ZN9SerialUSB13USBController4TaskEb+0x4c>
  tud_task_ext(UINT32_MAX, false);
    2d16:	2100      	movs	r1, #0
    2d18:	2001      	movs	r0, #1
    2d1a:	4240      	negs	r0, r0
    2d1c:	4b1a      	ldr	r3, [pc, #104]	; (2d88 <_ZN9SerialUSB13USBController4TaskEb+0xa4>)
    2d1e:	4798      	blx	r3
}
    2d20:	e7eb      	b.n	2cfa <_ZN9SerialUSB13USBController4TaskEb+0x16>
		if(tud_cdc_available() && usb_buffer.GetBufferState() != GenericBuffer::BufferState::Full)
    2d22:	0028      	movs	r0, r5
    2d24:	4b19      	ldr	r3, [pc, #100]	; (2d8c <_ZN9SerialUSB13USBController4TaskEb+0xa8>)
    2d26:	4798      	blx	r3
    2d28:	2801      	cmp	r0, #1
    2d2a:	d1f2      	bne.n	2d12 <_ZN9SerialUSB13USBController4TaskEb+0x2e>
    2d2c:	2400      	movs	r4, #0
    2d2e:	e7f0      	b.n	2d12 <_ZN9SerialUSB13USBController4TaskEb+0x2e>
			}
    2d30:	46ea      	mov	sl, sp
			char packet[usb_buffer.GetBufferEmpty()];
    2d32:	0028      	movs	r0, r5
    2d34:	4c16      	ldr	r4, [pc, #88]	; (2d90 <_ZN9SerialUSB13USBController4TaskEb+0xac>)
    2d36:	47a0      	blx	r4
    2d38:	3007      	adds	r0, #7
    2d3a:	08c0      	lsrs	r0, r0, #3
    2d3c:	00c0      	lsls	r0, r0, #3
    2d3e:	466b      	mov	r3, sp
    2d40:	1a1b      	subs	r3, r3, r0
    2d42:	469d      	mov	sp, r3
    2d44:	466e      	mov	r6, sp
			uint32_t count = tud_cdc_read(packet, usb_buffer.GetBufferEmpty());
    2d46:	0028      	movs	r0, r5
    2d48:	47a0      	blx	r4
    2d4a:	0002      	movs	r2, r0
  return tud_cdc_n_read(0, buffer, bufsize);
    2d4c:	4669      	mov	r1, sp
    2d4e:	2000      	movs	r0, #0
    2d50:	4b10      	ldr	r3, [pc, #64]	; (2d94 <_ZN9SerialUSB13USBController4TaskEb+0xb0>)
    2d52:	4798      	blx	r3
    2d54:	4680      	mov	r8, r0
			if(echo)
    2d56:	687b      	ldr	r3, [r7, #4]
    2d58:	2b00      	cmp	r3, #0
    2d5a:	d108      	bne.n	2d6e <_ZN9SerialUSB13USBController4TaskEb+0x8a>
    2d5c:	2400      	movs	r4, #0
				for(uint32_t i = 0; i < count; i++) PutBuffer(packet[i]);
    2d5e:	4544      	cmp	r4, r8
    2d60:	d20d      	bcs.n	2d7e <_ZN9SerialUSB13USBController4TaskEb+0x9a>
    2d62:	5d31      	ldrb	r1, [r6, r4]
    2d64:	0028      	movs	r0, r5
    2d66:	4b0c      	ldr	r3, [pc, #48]	; (2d98 <_ZN9SerialUSB13USBController4TaskEb+0xb4>)
    2d68:	4798      	blx	r3
    2d6a:	3401      	adds	r4, #1
    2d6c:	e7f7      	b.n	2d5e <_ZN9SerialUSB13USBController4TaskEb+0x7a>
  return tud_cdc_n_write(0, buffer, bufsize);
    2d6e:	0002      	movs	r2, r0
    2d70:	4669      	mov	r1, sp
    2d72:	2000      	movs	r0, #0
    2d74:	4b09      	ldr	r3, [pc, #36]	; (2d9c <_ZN9SerialUSB13USBController4TaskEb+0xb8>)
    2d76:	4798      	blx	r3
  return tud_cdc_n_write_flush(0);
    2d78:	2000      	movs	r0, #0
    2d7a:	4b09      	ldr	r3, [pc, #36]	; (2da0 <_ZN9SerialUSB13USBController4TaskEb+0xbc>)
    2d7c:	4798      	blx	r3
    2d7e:	46d5      	mov	sp, sl
    2d80:	e7c9      	b.n	2d16 <_ZN9SerialUSB13USBController4TaskEb+0x32>
    2d82:	46c0      	nop			; (mov r8, r8)
    2d84:	00000635 	.word	0x00000635
    2d88:	00001da1 	.word	0x00001da1
    2d8c:	00002a79 	.word	0x00002a79
    2d90:	00002a71 	.word	0x00002a71
    2d94:	00000655 	.word	0x00000655
    2d98:	00002cd1 	.word	0x00002cd1
    2d9c:	00000755 	.word	0x00000755
    2da0:	00000685 	.word	0x00000685

00002da4 <_ZNK9SerialUSB13USBController11IsConnectedEv>:
{
	return usb_buffer.GetBufferAvailable();
}

bool SerialUSB::USBController::IsConnected(void) const
{
    2da4:	b510      	push	{r4, lr}
	return usb_on && tud_mounted();
    2da6:	7f00      	ldrb	r0, [r0, #28]
    2da8:	2800      	cmp	r0, #0
    2daa:	d100      	bne.n	2dae <_ZNK9SerialUSB13USBController11IsConnectedEv+0xa>
}
    2dac:	bd10      	pop	{r4, pc}
	return usb_on && tud_mounted();
    2dae:	4b01      	ldr	r3, [pc, #4]	; (2db4 <_ZNK9SerialUSB13USBController11IsConnectedEv+0x10>)
    2db0:	4798      	blx	r3
    2db2:	e7fb      	b.n	2dac <_ZNK9SerialUSB13USBController11IsConnectedEv+0x8>
    2db4:	000014e1 	.word	0x000014e1

00002db8 <_ZN9SerialUSB13USBController6DetachEv>:

void SerialUSB::USBController::Detach(void)
{
    2db8:	b510      	push	{r4, lr}
    2dba:	0004      	movs	r4, r0
	if(usb_on && !detached)
    2dbc:	7f03      	ldrb	r3, [r0, #28]
    2dbe:	2b00      	cmp	r3, #0
    2dc0:	d002      	beq.n	2dc8 <_ZN9SerialUSB13USBController6DetachEv+0x10>
    2dc2:	7f43      	ldrb	r3, [r0, #29]
    2dc4:	2b00      	cmp	r3, #0
    2dc6:	d000      	beq.n	2dca <_ZN9SerialUSB13USBController6DetachEv+0x12>
	{
		tud_disconnect();
		detached = true;
	}
}
    2dc8:	bd10      	pop	{r4, pc}
		tud_disconnect();
    2dca:	4b02      	ldr	r3, [pc, #8]	; (2dd4 <_ZN9SerialUSB13USBController6DetachEv+0x1c>)
    2dcc:	4798      	blx	r3
		detached = true;
    2dce:	2301      	movs	r3, #1
    2dd0:	7763      	strb	r3, [r4, #29]
}
    2dd2:	e7f9      	b.n	2dc8 <_ZN9SerialUSB13USBController6DetachEv+0x10>
    2dd4:	00001501 	.word	0x00001501

00002dd8 <_ZN9SerialUSB13USBController6DeinitEv>:
{
    2dd8:	b510      	push	{r4, lr}
    2dda:	0004      	movs	r4, r0
	if(usb_on)
    2ddc:	7f03      	ldrb	r3, [r0, #28]
    2dde:	2b00      	cmp	r3, #0
    2de0:	d100      	bne.n	2de4 <_ZN9SerialUSB13USBController6DeinitEv+0xc>
}
    2de2:	bd10      	pop	{r4, pc}
		ClearBuffers();
    2de4:	2201      	movs	r2, #1
    2de6:	2101      	movs	r1, #1
    2de8:	4b03      	ldr	r3, [pc, #12]	; (2df8 <_ZN9SerialUSB13USBController6DeinitEv+0x20>)
    2dea:	4798      	blx	r3
		Detach();
    2dec:	0020      	movs	r0, r4
    2dee:	4b03      	ldr	r3, [pc, #12]	; (2dfc <_ZN9SerialUSB13USBController6DeinitEv+0x24>)
    2df0:	4798      	blx	r3
		usb_on = false;
    2df2:	2300      	movs	r3, #0
    2df4:	7723      	strb	r3, [r4, #28]
}
    2df6:	e7f4      	b.n	2de2 <_ZN9SerialUSB13USBController6DeinitEv+0xa>
    2df8:	00002bad 	.word	0x00002bad
    2dfc:	00002db9 	.word	0x00002db9

00002e00 <_ZN9SerialUSB13USBControllerD1Ev>:
SerialUSB::USBController::~USBController(void)
    2e00:	b510      	push	{r4, lr}
    2e02:	0004      	movs	r4, r0
	Deinit();
    2e04:	4b03      	ldr	r3, [pc, #12]	; (2e14 <_ZN9SerialUSB13USBControllerD1Ev+0x14>)
    2e06:	4798      	blx	r3
SerialUSB::USBController::~USBController(void)
    2e08:	0020      	movs	r0, r4
    2e0a:	4b03      	ldr	r3, [pc, #12]	; (2e18 <_ZN9SerialUSB13USBControllerD1Ev+0x18>)
    2e0c:	4798      	blx	r3
}
    2e0e:	0020      	movs	r0, r4
    2e10:	bd10      	pop	{r4, pc}
    2e12:	46c0      	nop			; (mov r8, r8)
    2e14:	00002dd9 	.word	0x00002dd9
    2e18:	000027a5 	.word	0x000027a5

00002e1c <_ZN9SerialUSB13USBController8ReattachEv>:

void SerialUSB::USBController::Reattach(void)
{
    2e1c:	b510      	push	{r4, lr}
    2e1e:	0004      	movs	r4, r0
	if(usb_on && detached)
    2e20:	7f03      	ldrb	r3, [r0, #28]
    2e22:	2b00      	cmp	r3, #0
    2e24:	d002      	beq.n	2e2c <_ZN9SerialUSB13USBController8ReattachEv+0x10>
    2e26:	7f43      	ldrb	r3, [r0, #29]
    2e28:	2b00      	cmp	r3, #0
    2e2a:	d100      	bne.n	2e2e <_ZN9SerialUSB13USBController8ReattachEv+0x12>
	{
		tud_connect();
		detached = false;
	}
}
    2e2c:	bd10      	pop	{r4, pc}
		tud_connect();
    2e2e:	4b02      	ldr	r3, [pc, #8]	; (2e38 <_ZN9SerialUSB13USBController8ReattachEv+0x1c>)
    2e30:	4798      	blx	r3
		detached = false;
    2e32:	2300      	movs	r3, #0
    2e34:	7763      	strb	r3, [r4, #29]
}
    2e36:	e7f9      	b.n	2e2c <_ZN9SerialUSB13USBController8ReattachEv+0x10>
    2e38:	00001521 	.word	0x00001521

00002e3c <_ZN9SerialUSB13USBController4InitEPcm>:
{
    2e3c:	b510      	push	{r4, lr}
    2e3e:	0004      	movs	r4, r0
	if(!usb_on)
    2e40:	7f03      	ldrb	r3, [r0, #28]
    2e42:	2b00      	cmp	r3, #0
    2e44:	d000      	beq.n	2e48 <_ZN9SerialUSB13USBController4InitEPcm+0xc>
}
    2e46:	bd10      	pop	{r4, pc}
		ResetBuffer(buf, buf_size);
    2e48:	4b08      	ldr	r3, [pc, #32]	; (2e6c <_ZN9SerialUSB13USBController4InitEPcm+0x30>)
    2e4a:	4798      	blx	r3
		USBFeedIOClocks();
    2e4c:	4b08      	ldr	r3, [pc, #32]	; (2e70 <_ZN9SerialUSB13USBController4InitEPcm+0x34>)
    2e4e:	4798      	blx	r3
		usb_on = true;
    2e50:	2301      	movs	r3, #1
    2e52:	7723      	strb	r3, [r4, #28]
		if(tud_inited())
    2e54:	4b07      	ldr	r3, [pc, #28]	; (2e74 <_ZN9SerialUSB13USBController4InitEPcm+0x38>)
    2e56:	4798      	blx	r3
    2e58:	2800      	cmp	r0, #0
    2e5a:	d102      	bne.n	2e62 <_ZN9SerialUSB13USBController4InitEPcm+0x26>
			tusb_init();	//tiny usb init (tusb_config.h must be configured to device mode, 1 CDC port and using the correct hardware environment)
    2e5c:	4b06      	ldr	r3, [pc, #24]	; (2e78 <_ZN9SerialUSB13USBController4InitEPcm+0x3c>)
    2e5e:	4798      	blx	r3
}
    2e60:	e7f1      	b.n	2e46 <_ZN9SerialUSB13USBController4InitEPcm+0xa>
			Reattach();
    2e62:	0020      	movs	r0, r4
    2e64:	4b05      	ldr	r3, [pc, #20]	; (2e7c <_ZN9SerialUSB13USBController4InitEPcm+0x40>)
    2e66:	4798      	blx	r3
    2e68:	e7ed      	b.n	2e46 <_ZN9SerialUSB13USBController4InitEPcm+0xa>
    2e6a:	46c0      	nop			; (mov r8, r8)
    2e6c:	00002ba1 	.word	0x00002ba1
    2e70:	00002a91 	.word	0x00002a91
    2e74:	00001541 	.word	0x00001541
    2e78:	00002e81 	.word	0x00002e81
    2e7c:	00002e1d 	.word	0x00002e1d

00002e80 <tusb_init>:
#if CFG_TUD_ENABLED
#include "device/usbd_pvt.h"
#endif

bool tusb_init(void)
{
    2e80:	b510      	push	{r4, lr}
#if CFG_TUD_ENABLED && defined(TUD_OPT_RHPORT)
  // init device stack CFG_TUSB_RHPORTx_MODE must be defined
  TU_ASSERT ( tud_init(TUD_OPT_RHPORT) );
    2e82:	2000      	movs	r0, #0
    2e84:	4b01      	ldr	r3, [pc, #4]	; (2e8c <tusb_init+0xc>)
    2e86:	4798      	blx	r3
  // init host stack CFG_TUSB_RHPORTx_MODE must be defined
  TU_ASSERT( tuh_init(TUH_OPT_RHPORT) );
#endif

  return true;
}
    2e88:	bd10      	pop	{r4, pc}
    2e8a:	46c0      	nop			; (mov r8, r8)
    2e8c:	00001555 	.word	0x00001555

00002e90 <tusb_inited>:

bool tusb_inited(void)
{
    2e90:	b510      	push	{r4, lr}
  bool ret = false;

#if CFG_TUD_ENABLED
  ret = ret || tud_inited();
    2e92:	4b03      	ldr	r3, [pc, #12]	; (2ea0 <tusb_inited+0x10>)
    2e94:	4798      	blx	r3
    2e96:	2800      	cmp	r0, #0
    2e98:	d000      	beq.n	2e9c <tusb_inited+0xc>
    2e9a:	2001      	movs	r0, #1
#if CFG_TUH_ENABLED
  ret = ret || tuh_inited();
#endif

  return ret;
}
    2e9c:	bd10      	pop	{r4, pc}
    2e9e:	46c0      	nop			; (mov r8, r8)
    2ea0:	00001541 	.word	0x00001541

00002ea4 <tu_edpt_claim>:
  TU_VERIFY((ep_state->busy == 0) && (ep_state->claimed == 0));
  osal_mutex_lock(mutex, OSAL_TIMEOUT_WAIT_FOREVER);
#endif

  // can only claim the endpoint if it is not busy and not claimed yet.
  bool const available = (ep_state->busy == 0) && (ep_state->claimed == 0);
    2ea4:	7803      	ldrb	r3, [r0, #0]
    2ea6:	07db      	lsls	r3, r3, #31
    2ea8:	d404      	bmi.n	2eb4 <tu_edpt_claim+0x10>
    2eaa:	7803      	ldrb	r3, [r0, #0]
    2eac:	075b      	lsls	r3, r3, #29
    2eae:	d50a      	bpl.n	2ec6 <tu_edpt_claim+0x22>
    2eb0:	2300      	movs	r3, #0
    2eb2:	e000      	b.n	2eb6 <tu_edpt_claim+0x12>
    2eb4:	2300      	movs	r3, #0
  if (available)
    2eb6:	2b00      	cmp	r3, #0
    2eb8:	d003      	beq.n	2ec2 <tu_edpt_claim+0x1e>
  {
    ep_state->claimed = 1;
    2eba:	7802      	ldrb	r2, [r0, #0]
    2ebc:	2104      	movs	r1, #4
    2ebe:	430a      	orrs	r2, r1
    2ec0:	7002      	strb	r2, [r0, #0]
#if TUSB_OPT_MUTEX
  osal_mutex_unlock(mutex);
#endif

  return available;
}
    2ec2:	0018      	movs	r0, r3
    2ec4:	4770      	bx	lr
  bool const available = (ep_state->busy == 0) && (ep_state->claimed == 0);
    2ec6:	2301      	movs	r3, #1
    2ec8:	e7f5      	b.n	2eb6 <tu_edpt_claim+0x12>

00002eca <tu_edpt_release>:
#if TUSB_OPT_MUTEX
  osal_mutex_lock(mutex, OSAL_TIMEOUT_WAIT_FOREVER);
#endif

  // can only release the endpoint if it is claimed and not busy
  bool const ret = (ep_state->claimed == 1) && (ep_state->busy == 0);
    2eca:	7803      	ldrb	r3, [r0, #0]
    2ecc:	075b      	lsls	r3, r3, #29
    2ece:	d408      	bmi.n	2ee2 <tu_edpt_release+0x18>
    2ed0:	2300      	movs	r3, #0
  if (ret)
    2ed2:	2b00      	cmp	r3, #0
    2ed4:	d003      	beq.n	2ede <tu_edpt_release+0x14>
  {
    ep_state->claimed = 0;
    2ed6:	7802      	ldrb	r2, [r0, #0]
    2ed8:	2104      	movs	r1, #4
    2eda:	438a      	bics	r2, r1
    2edc:	7002      	strb	r2, [r0, #0]
#if TUSB_OPT_MUTEX
  osal_mutex_unlock(mutex);
#endif

  return ret;
}
    2ede:	0018      	movs	r0, r3
    2ee0:	4770      	bx	lr
  bool const ret = (ep_state->claimed == 1) && (ep_state->busy == 0);
    2ee2:	7803      	ldrb	r3, [r0, #0]
    2ee4:	07db      	lsls	r3, r3, #31
    2ee6:	d501      	bpl.n	2eec <tu_edpt_release+0x22>
    2ee8:	2300      	movs	r3, #0
    2eea:	e7f2      	b.n	2ed2 <tu_edpt_release+0x8>
    2eec:	2301      	movs	r3, #1
    2eee:	e7f0      	b.n	2ed2 <tu_edpt_release+0x8>

00002ef0 <tu_edpt_validate>:
  return tu_le16toh(desc_ep->wMaxPacketSize) & TU_GENMASK(10, 0);
    2ef0:	7902      	ldrb	r2, [r0, #4]
    2ef2:	7943      	ldrb	r3, [r0, #5]
    2ef4:	021b      	lsls	r3, r3, #8
    2ef6:	4313      	orrs	r3, r2
    2ef8:	055b      	lsls	r3, r3, #21
    2efa:	0d5b      	lsrs	r3, r3, #21
bool tu_edpt_validate(tusb_desc_endpoint_t const * desc_ep, tusb_speed_t speed)
{
  uint16_t const max_packet_size = tu_edpt_packet_size(desc_ep);
  TU_LOG2("  Open EP %02X with Size = %u\r\n", desc_ep->bEndpointAddress, max_packet_size);

  switch (desc_ep->bmAttributes.xfer)
    2efc:	78c2      	ldrb	r2, [r0, #3]
    2efe:	0792      	lsls	r2, r2, #30
    2f00:	0f92      	lsrs	r2, r2, #30
    2f02:	2a02      	cmp	r2, #2
    2f04:	d00c      	beq.n	2f20 <tu_edpt_validate+0x30>
    2f06:	d819      	bhi.n	2f3c <tu_edpt_validate+0x4c>
    2f08:	2a01      	cmp	r2, #1
    2f0a:	d121      	bne.n	2f50 <tu_edpt_validate+0x60>
  {
    case TUSB_XFER_ISOCHRONOUS:
    {
      uint16_t const spec_size = (speed == TUSB_SPEED_HIGH ? 1024 : 1023);
    2f0c:	2902      	cmp	r1, #2
    2f0e:	d004      	beq.n	2f1a <tu_edpt_validate+0x2a>
    2f10:	4a13      	ldr	r2, [pc, #76]	; (2f60 <tu_edpt_validate+0x70>)
      TU_ASSERT(max_packet_size <= spec_size);
    2f12:	429a      	cmp	r2, r3
    2f14:	d31e      	bcc.n	2f54 <tu_edpt_validate+0x64>
    break;

    default: return false;
  }

  return true;
    2f16:	2001      	movs	r0, #1
    2f18:	e01b      	b.n	2f52 <tu_edpt_validate+0x62>
      uint16_t const spec_size = (speed == TUSB_SPEED_HIGH ? 1024 : 1023);
    2f1a:	2280      	movs	r2, #128	; 0x80
    2f1c:	00d2      	lsls	r2, r2, #3
    2f1e:	e7f8      	b.n	2f12 <tu_edpt_validate+0x22>
      if (speed == TUSB_SPEED_HIGH)
    2f20:	2902      	cmp	r1, #2
    2f22:	d003      	beq.n	2f2c <tu_edpt_validate+0x3c>
        TU_ASSERT(max_packet_size <= 64);
    2f24:	2b40      	cmp	r3, #64	; 0x40
    2f26:	d817      	bhi.n	2f58 <tu_edpt_validate+0x68>
  return true;
    2f28:	2001      	movs	r0, #1
    2f2a:	e012      	b.n	2f52 <tu_edpt_validate+0x62>
        TU_ASSERT(max_packet_size == 512);
    2f2c:	2280      	movs	r2, #128	; 0x80
    2f2e:	0092      	lsls	r2, r2, #2
    2f30:	4293      	cmp	r3, r2
    2f32:	d001      	beq.n	2f38 <tu_edpt_validate+0x48>
    2f34:	2000      	movs	r0, #0
    2f36:	e00c      	b.n	2f52 <tu_edpt_validate+0x62>
  return true;
    2f38:	2001      	movs	r0, #1
    2f3a:	e00a      	b.n	2f52 <tu_edpt_validate+0x62>
      uint16_t const spec_size = (speed == TUSB_SPEED_HIGH ? 1024 : 64);
    2f3c:	2902      	cmp	r1, #2
    2f3e:	d004      	beq.n	2f4a <tu_edpt_validate+0x5a>
    2f40:	2240      	movs	r2, #64	; 0x40
      TU_ASSERT(max_packet_size <= spec_size);
    2f42:	429a      	cmp	r2, r3
    2f44:	d30a      	bcc.n	2f5c <tu_edpt_validate+0x6c>
  return true;
    2f46:	2001      	movs	r0, #1
    2f48:	e003      	b.n	2f52 <tu_edpt_validate+0x62>
      uint16_t const spec_size = (speed == TUSB_SPEED_HIGH ? 1024 : 64);
    2f4a:	2280      	movs	r2, #128	; 0x80
    2f4c:	00d2      	lsls	r2, r2, #3
    2f4e:	e7f8      	b.n	2f42 <tu_edpt_validate+0x52>
    default: return false;
    2f50:	2000      	movs	r0, #0
}
    2f52:	4770      	bx	lr
      TU_ASSERT(max_packet_size <= spec_size);
    2f54:	2000      	movs	r0, #0
    2f56:	e7fc      	b.n	2f52 <tu_edpt_validate+0x62>
        TU_ASSERT(max_packet_size <= 64);
    2f58:	2000      	movs	r0, #0
    2f5a:	e7fa      	b.n	2f52 <tu_edpt_validate+0x62>
      TU_ASSERT(max_packet_size <= spec_size);
    2f5c:	2000      	movs	r0, #0
    2f5e:	e7f8      	b.n	2f52 <tu_edpt_validate+0x62>
    2f60:	000003ff 	.word	0x000003ff

00002f64 <tu_edpt_bind_driver>:

void tu_edpt_bind_driver(uint8_t ep2drv[][2], tusb_desc_interface_t const* desc_itf, uint16_t desc_len, uint8_t driver_id)
{
    2f64:	b530      	push	{r4, r5, lr}
  uint8_t const* p_desc = (uint8_t const*) desc_itf;
  uint8_t const* desc_end = p_desc + desc_len;
    2f66:	188a      	adds	r2, r1, r2

  while( p_desc < desc_end )
    2f68:	e001      	b.n	2f6e <tu_edpt_bind_driver+0xa>
  return desc8 + desc8[DESC_OFFSET_LEN];
    2f6a:	780c      	ldrb	r4, [r1, #0]
    2f6c:	1909      	adds	r1, r1, r4
    2f6e:	4291      	cmp	r1, r2
    2f70:	d20a      	bcs.n	2f88 <tu_edpt_bind_driver+0x24>
  return ((uint8_t const*) desc)[DESC_OFFSET_TYPE];
    2f72:	784c      	ldrb	r4, [r1, #1]
  {
    if ( TUSB_DESC_ENDPOINT == tu_desc_type(p_desc) )
    2f74:	2c05      	cmp	r4, #5
    2f76:	d1f8      	bne.n	2f6a <tu_edpt_bind_driver+0x6>
    {
      uint8_t const ep_addr = ((tusb_desc_endpoint_t const*) p_desc)->bEndpointAddress;
    2f78:	788d      	ldrb	r5, [r1, #2]
  return (uint8_t)(addr & (~TUSB_DIR_IN_MASK));
    2f7a:	347a      	adds	r4, #122	; 0x7a
    2f7c:	402c      	ands	r4, r5

      TU_LOG(2, "  Bind EP %02x to driver id %u\r\n", ep_addr, driver_id);
      ep2drv[tu_edpt_number(ep_addr)][tu_edpt_dir(ep_addr)] = driver_id;
    2f7e:	0064      	lsls	r4, r4, #1
    2f80:	1904      	adds	r4, r0, r4
  return (addr & TUSB_DIR_IN_MASK) ? TUSB_DIR_IN : TUSB_DIR_OUT;
    2f82:	09ed      	lsrs	r5, r5, #7
    2f84:	5563      	strb	r3, [r4, r5]
    2f86:	e7f0      	b.n	2f6a <tu_edpt_bind_driver+0x6>
    }

    p_desc = tu_desc_next(p_desc);
  }
}
    2f88:	bd30      	pop	{r4, r5, pc}
	...

00002f8c <tud_descriptor_device_cb>:
// Invoked when received GET DEVICE DESCRIPTOR
// Application return pointer to descriptor
uint8_t const * tud_descriptor_device_cb(void)
{
  return (uint8_t const *) &desc_device;
}
    2f8c:	4800      	ldr	r0, [pc, #0]	; (2f90 <tud_descriptor_device_cb+0x4>)
    2f8e:	4770      	bx	lr
    2f90:	00003694 	.word	0x00003694

00002f94 <tud_descriptor_configuration_cb>:

#if TUD_OPT_HIGH_SPEED
  // Although we are highspeed, host may be fullspeed.
  return (tud_speed_get() == TUSB_SPEED_HIGH) ?  desc_hs_configuration : desc_fs_configuration;
#else
  return desc_fs_configuration;
    2f94:	4801      	ldr	r0, [pc, #4]	; (2f9c <tud_descriptor_configuration_cb+0x8>)
#endif
}
    2f96:	3014      	adds	r0, #20
    2f98:	4770      	bx	lr
    2f9a:	46c0      	nop			; (mov r8, r8)
    2f9c:	00003694 	.word	0x00003694

00002fa0 <tud_descriptor_string_cb>:
static uint16_t _desc_str[32];

// Invoked when received GET STRING DESCRIPTOR request
// Application return pointer to descriptor, whose contents must exist long enough for transfer to complete
uint16_t const* tud_descriptor_string_cb(uint8_t index, uint16_t langid)
{
    2fa0:	b570      	push	{r4, r5, r6, lr}
  (void) langid;

  uint8_t chr_count;

  if ( index == 0)
    2fa2:	2800      	cmp	r0, #0
    2fa4:	d00d      	beq.n	2fc2 <tud_descriptor_string_cb+0x22>
  }else
  {
    // Note: the 0xEE index string is a Microsoft OS 1.0 Descriptors.
    // https://docs.microsoft.com/en-us/windows-hardware/drivers/usbcon/microsoft-defined-usb-descriptors

    if ( !(index < sizeof(string_desc_arr)/sizeof(string_desc_arr[0])) ) return NULL;
    2fa6:	2804      	cmp	r0, #4
    2fa8:	d824      	bhi.n	2ff4 <tud_descriptor_string_cb+0x54>

    const char* str = string_desc_arr[index];
    2faa:	0080      	lsls	r0, r0, #2
    2fac:	4b12      	ldr	r3, [pc, #72]	; (2ff8 <tud_descriptor_string_cb+0x58>)
    2fae:	58c5      	ldr	r5, [r0, r3]

    // Cap at max char
    chr_count = (uint8_t) strlen(str);
    2fb0:	0028      	movs	r0, r5
    2fb2:	4b12      	ldr	r3, [pc, #72]	; (2ffc <tud_descriptor_string_cb+0x5c>)
    2fb4:	4798      	blx	r3
    2fb6:	b2c0      	uxtb	r0, r0
    if ( chr_count > 31 ) chr_count = 31;
    2fb8:	281f      	cmp	r0, #31
    2fba:	d900      	bls.n	2fbe <tud_descriptor_string_cb+0x1e>
    2fbc:	201f      	movs	r0, #31

    // Convert ASCII string into UTF-16
    for(uint8_t i=0; i<chr_count; i++)
    2fbe:	2300      	movs	r3, #0
    2fc0:	e00e      	b.n	2fe0 <tud_descriptor_string_cb+0x40>
    memcpy(&_desc_str[1], string_desc_arr[0], 2);
    2fc2:	4b0d      	ldr	r3, [pc, #52]	; (2ff8 <tud_descriptor_string_cb+0x58>)
    2fc4:	6819      	ldr	r1, [r3, #0]
    2fc6:	2202      	movs	r2, #2
    2fc8:	480d      	ldr	r0, [pc, #52]	; (3000 <tud_descriptor_string_cb+0x60>)
    2fca:	3002      	adds	r0, #2
    2fcc:	4b0d      	ldr	r3, [pc, #52]	; (3004 <tud_descriptor_string_cb+0x64>)
    2fce:	4798      	blx	r3
    chr_count = 1;
    2fd0:	2001      	movs	r0, #1
    2fd2:	e007      	b.n	2fe4 <tud_descriptor_string_cb+0x44>
    {
      _desc_str[1+i] = str[i];
    2fd4:	1c5a      	adds	r2, r3, #1
    2fd6:	5cec      	ldrb	r4, [r5, r3]
    2fd8:	0051      	lsls	r1, r2, #1
    2fda:	4b09      	ldr	r3, [pc, #36]	; (3000 <tud_descriptor_string_cb+0x60>)
    2fdc:	52cc      	strh	r4, [r1, r3]
    for(uint8_t i=0; i<chr_count; i++)
    2fde:	b2d3      	uxtb	r3, r2
    2fe0:	4298      	cmp	r0, r3
    2fe2:	d8f7      	bhi.n	2fd4 <tud_descriptor_string_cb+0x34>
    }
  }

  // first byte is length (including header), second byte is string type
  _desc_str[0] = (uint16_t) ((TUSB_DESC_STRING << 8 ) | (2*chr_count + 2));
    2fe4:	3001      	adds	r0, #1
    2fe6:	0040      	lsls	r0, r0, #1
    2fe8:	23c0      	movs	r3, #192	; 0xc0
    2fea:	009b      	lsls	r3, r3, #2
    2fec:	4303      	orrs	r3, r0
    2fee:	4804      	ldr	r0, [pc, #16]	; (3000 <tud_descriptor_string_cb+0x60>)
    2ff0:	8003      	strh	r3, [r0, #0]

  return _desc_str;
}
    2ff2:	bd70      	pop	{r4, r5, r6, pc}
    if ( !(index < sizeof(string_desc_arr)/sizeof(string_desc_arr[0])) ) return NULL;
    2ff4:	2000      	movs	r0, #0
    2ff6:	e7fc      	b.n	2ff2 <tud_descriptor_string_cb+0x52>
    2ff8:	20000020 	.word	0x20000020
    2ffc:	000032f1 	.word	0x000032f1
    3000:	20000984 	.word	0x20000984
    3004:	000031d9 	.word	0x000031d9

00003008 <_ZN12StateMachine13ExecuteActionEPNS_11STT_MACHINEE>:


#include "state_machine.h"

void StateMachine::ExecuteAction(StateMachine::STT_MACHINE * state_table)
{
    3008:	b510      	push	{r4, lr}
    300a:	0004      	movs	r4, r0
	state_table->current_state = state_table->state_actions[state_table->current_state]();
    300c:	7803      	ldrb	r3, [r0, #0]
    300e:	009b      	lsls	r3, r3, #2
    3010:	18c3      	adds	r3, r0, r3
    3012:	685b      	ldr	r3, [r3, #4]
    3014:	4798      	blx	r3
    3016:	7020      	strb	r0, [r4, #0]
}
    3018:	bd10      	pop	{r4, pc}

0000301a <_ZN12StateMachine17ProcessSuperStateEPhhPFhvE>:

void StateMachine::ProcessSuperState(StateMachine::STT_STATE * current_state, StateMachine::STT_STATE super_state, StateMachine::STT_ACTION super_function)
{
    301a:	b570      	push	{r4, r5, r6, lr}
    301c:	0005      	movs	r5, r0
    301e:	000c      	movs	r4, r1
	STT_STATE temp_state = super_function();
    3020:	4790      	blx	r2
	if(temp_state != super_state)
    3022:	42a0      	cmp	r0, r4
    3024:	d000      	beq.n	3028 <_ZN12StateMachine17ProcessSuperStateEPhhPFhvE+0xe>
		*current_state = temp_state;
    3026:	7028      	strb	r0, [r5, #0]
}
    3028:	bd70      	pop	{r4, r5, r6, pc}
	...

0000302c <_ZN4Util20enterCriticalSectionEv>:

uint32_t Util::critical_section_count = 0;

void Util::enterCriticalSection()
{
    if(Util::critical_section_count == 0)
    302c:	4b04      	ldr	r3, [pc, #16]	; (3040 <_ZN4Util20enterCriticalSectionEv+0x14>)
    302e:	681b      	ldr	r3, [r3, #0]
    3030:	2b00      	cmp	r3, #0
    3032:	d100      	bne.n	3036 <_ZN4Util20enterCriticalSectionEv+0xa>
  __ASM volatile ("cpsid i" : : : "memory");
    3034:	b672      	cpsid	i
    {
        __disable_irq();
    }
    Util::critical_section_count++;
    3036:	4a02      	ldr	r2, [pc, #8]	; (3040 <_ZN4Util20enterCriticalSectionEv+0x14>)
    3038:	6813      	ldr	r3, [r2, #0]
    303a:	3301      	adds	r3, #1
    303c:	6013      	str	r3, [r2, #0]
}
    303e:	4770      	bx	lr
    3040:	200009c4 	.word	0x200009c4

00003044 <_ZN4Util19exitCriticalSectionEv>:

void Util::exitCriticalSection()
{
    Util::critical_section_count--;
    3044:	4a03      	ldr	r2, [pc, #12]	; (3054 <_ZN4Util19exitCriticalSectionEv+0x10>)
    3046:	6813      	ldr	r3, [r2, #0]
    3048:	3b01      	subs	r3, #1
    304a:	6013      	str	r3, [r2, #0]

    if(Util::critical_section_count == 0)
    304c:	2b00      	cmp	r3, #0
    304e:	d100      	bne.n	3052 <_ZN4Util19exitCriticalSectionEv+0xe>
  __ASM volatile ("cpsie i" : : : "memory");
    3050:	b662      	cpsie	i
    {
        __enable_irq();
    }
}
    3052:	4770      	bx	lr
    3054:	200009c4 	.word	0x200009c4

00003058 <__aeabi_atexit>:
    3058:	000b      	movs	r3, r1
    305a:	b510      	push	{r4, lr}
    305c:	0001      	movs	r1, r0
    305e:	0018      	movs	r0, r3
    3060:	f000 f88e 	bl	3180 <__cxa_atexit>
    3064:	bd10      	pop	{r4, pc}
    3066:	46c0      	nop			; (mov r8, r8)

00003068 <__udivsi3>:
    3068:	2200      	movs	r2, #0
    306a:	0843      	lsrs	r3, r0, #1
    306c:	428b      	cmp	r3, r1
    306e:	d374      	bcc.n	315a <__udivsi3+0xf2>
    3070:	0903      	lsrs	r3, r0, #4
    3072:	428b      	cmp	r3, r1
    3074:	d35f      	bcc.n	3136 <__udivsi3+0xce>
    3076:	0a03      	lsrs	r3, r0, #8
    3078:	428b      	cmp	r3, r1
    307a:	d344      	bcc.n	3106 <__udivsi3+0x9e>
    307c:	0b03      	lsrs	r3, r0, #12
    307e:	428b      	cmp	r3, r1
    3080:	d328      	bcc.n	30d4 <__udivsi3+0x6c>
    3082:	0c03      	lsrs	r3, r0, #16
    3084:	428b      	cmp	r3, r1
    3086:	d30d      	bcc.n	30a4 <__udivsi3+0x3c>
    3088:	22ff      	movs	r2, #255	; 0xff
    308a:	0209      	lsls	r1, r1, #8
    308c:	ba12      	rev	r2, r2
    308e:	0c03      	lsrs	r3, r0, #16
    3090:	428b      	cmp	r3, r1
    3092:	d302      	bcc.n	309a <__udivsi3+0x32>
    3094:	1212      	asrs	r2, r2, #8
    3096:	0209      	lsls	r1, r1, #8
    3098:	d065      	beq.n	3166 <__udivsi3+0xfe>
    309a:	0b03      	lsrs	r3, r0, #12
    309c:	428b      	cmp	r3, r1
    309e:	d319      	bcc.n	30d4 <__udivsi3+0x6c>
    30a0:	e000      	b.n	30a4 <__udivsi3+0x3c>
    30a2:	0a09      	lsrs	r1, r1, #8
    30a4:	0bc3      	lsrs	r3, r0, #15
    30a6:	428b      	cmp	r3, r1
    30a8:	d301      	bcc.n	30ae <__udivsi3+0x46>
    30aa:	03cb      	lsls	r3, r1, #15
    30ac:	1ac0      	subs	r0, r0, r3
    30ae:	4152      	adcs	r2, r2
    30b0:	0b83      	lsrs	r3, r0, #14
    30b2:	428b      	cmp	r3, r1
    30b4:	d301      	bcc.n	30ba <__udivsi3+0x52>
    30b6:	038b      	lsls	r3, r1, #14
    30b8:	1ac0      	subs	r0, r0, r3
    30ba:	4152      	adcs	r2, r2
    30bc:	0b43      	lsrs	r3, r0, #13
    30be:	428b      	cmp	r3, r1
    30c0:	d301      	bcc.n	30c6 <__udivsi3+0x5e>
    30c2:	034b      	lsls	r3, r1, #13
    30c4:	1ac0      	subs	r0, r0, r3
    30c6:	4152      	adcs	r2, r2
    30c8:	0b03      	lsrs	r3, r0, #12
    30ca:	428b      	cmp	r3, r1
    30cc:	d301      	bcc.n	30d2 <__udivsi3+0x6a>
    30ce:	030b      	lsls	r3, r1, #12
    30d0:	1ac0      	subs	r0, r0, r3
    30d2:	4152      	adcs	r2, r2
    30d4:	0ac3      	lsrs	r3, r0, #11
    30d6:	428b      	cmp	r3, r1
    30d8:	d301      	bcc.n	30de <__udivsi3+0x76>
    30da:	02cb      	lsls	r3, r1, #11
    30dc:	1ac0      	subs	r0, r0, r3
    30de:	4152      	adcs	r2, r2
    30e0:	0a83      	lsrs	r3, r0, #10
    30e2:	428b      	cmp	r3, r1
    30e4:	d301      	bcc.n	30ea <__udivsi3+0x82>
    30e6:	028b      	lsls	r3, r1, #10
    30e8:	1ac0      	subs	r0, r0, r3
    30ea:	4152      	adcs	r2, r2
    30ec:	0a43      	lsrs	r3, r0, #9
    30ee:	428b      	cmp	r3, r1
    30f0:	d301      	bcc.n	30f6 <__udivsi3+0x8e>
    30f2:	024b      	lsls	r3, r1, #9
    30f4:	1ac0      	subs	r0, r0, r3
    30f6:	4152      	adcs	r2, r2
    30f8:	0a03      	lsrs	r3, r0, #8
    30fa:	428b      	cmp	r3, r1
    30fc:	d301      	bcc.n	3102 <__udivsi3+0x9a>
    30fe:	020b      	lsls	r3, r1, #8
    3100:	1ac0      	subs	r0, r0, r3
    3102:	4152      	adcs	r2, r2
    3104:	d2cd      	bcs.n	30a2 <__udivsi3+0x3a>
    3106:	09c3      	lsrs	r3, r0, #7
    3108:	428b      	cmp	r3, r1
    310a:	d301      	bcc.n	3110 <__udivsi3+0xa8>
    310c:	01cb      	lsls	r3, r1, #7
    310e:	1ac0      	subs	r0, r0, r3
    3110:	4152      	adcs	r2, r2
    3112:	0983      	lsrs	r3, r0, #6
    3114:	428b      	cmp	r3, r1
    3116:	d301      	bcc.n	311c <__udivsi3+0xb4>
    3118:	018b      	lsls	r3, r1, #6
    311a:	1ac0      	subs	r0, r0, r3
    311c:	4152      	adcs	r2, r2
    311e:	0943      	lsrs	r3, r0, #5
    3120:	428b      	cmp	r3, r1
    3122:	d301      	bcc.n	3128 <__udivsi3+0xc0>
    3124:	014b      	lsls	r3, r1, #5
    3126:	1ac0      	subs	r0, r0, r3
    3128:	4152      	adcs	r2, r2
    312a:	0903      	lsrs	r3, r0, #4
    312c:	428b      	cmp	r3, r1
    312e:	d301      	bcc.n	3134 <__udivsi3+0xcc>
    3130:	010b      	lsls	r3, r1, #4
    3132:	1ac0      	subs	r0, r0, r3
    3134:	4152      	adcs	r2, r2
    3136:	08c3      	lsrs	r3, r0, #3
    3138:	428b      	cmp	r3, r1
    313a:	d301      	bcc.n	3140 <__udivsi3+0xd8>
    313c:	00cb      	lsls	r3, r1, #3
    313e:	1ac0      	subs	r0, r0, r3
    3140:	4152      	adcs	r2, r2
    3142:	0883      	lsrs	r3, r0, #2
    3144:	428b      	cmp	r3, r1
    3146:	d301      	bcc.n	314c <__udivsi3+0xe4>
    3148:	008b      	lsls	r3, r1, #2
    314a:	1ac0      	subs	r0, r0, r3
    314c:	4152      	adcs	r2, r2
    314e:	0843      	lsrs	r3, r0, #1
    3150:	428b      	cmp	r3, r1
    3152:	d301      	bcc.n	3158 <__udivsi3+0xf0>
    3154:	004b      	lsls	r3, r1, #1
    3156:	1ac0      	subs	r0, r0, r3
    3158:	4152      	adcs	r2, r2
    315a:	1a41      	subs	r1, r0, r1
    315c:	d200      	bcs.n	3160 <__udivsi3+0xf8>
    315e:	4601      	mov	r1, r0
    3160:	4152      	adcs	r2, r2
    3162:	4610      	mov	r0, r2
    3164:	4770      	bx	lr
    3166:	e7ff      	b.n	3168 <__udivsi3+0x100>
    3168:	b501      	push	{r0, lr}
    316a:	2000      	movs	r0, #0
    316c:	f000 f806 	bl	317c <__aeabi_idiv0>
    3170:	bd02      	pop	{r1, pc}
    3172:	46c0      	nop			; (mov r8, r8)

00003174 <__aeabi_uidivmod>:
    3174:	2900      	cmp	r1, #0
    3176:	d0f7      	beq.n	3168 <__udivsi3+0x100>
    3178:	e776      	b.n	3068 <__udivsi3>
    317a:	4770      	bx	lr

0000317c <__aeabi_idiv0>:
    317c:	4770      	bx	lr
    317e:	46c0      	nop			; (mov r8, r8)

00003180 <__cxa_atexit>:
    3180:	b510      	push	{r4, lr}
    3182:	0013      	movs	r3, r2
    3184:	000a      	movs	r2, r1
    3186:	0001      	movs	r1, r0
    3188:	2002      	movs	r0, #2
    318a:	f000 f8e3 	bl	3354 <__register_exitproc>
    318e:	bd10      	pop	{r4, pc}

00003190 <__libc_init_array>:
    3190:	b570      	push	{r4, r5, r6, lr}
    3192:	4e0d      	ldr	r6, [pc, #52]	; (31c8 <__libc_init_array+0x38>)
    3194:	4d0d      	ldr	r5, [pc, #52]	; (31cc <__libc_init_array+0x3c>)
    3196:	2400      	movs	r4, #0
    3198:	1bad      	subs	r5, r5, r6
    319a:	10ad      	asrs	r5, r5, #2
    319c:	d005      	beq.n	31aa <__libc_init_array+0x1a>
    319e:	00a3      	lsls	r3, r4, #2
    31a0:	58f3      	ldr	r3, [r6, r3]
    31a2:	3401      	adds	r4, #1
    31a4:	4798      	blx	r3
    31a6:	42a5      	cmp	r5, r4
    31a8:	d1f9      	bne.n	319e <__libc_init_array+0xe>
    31aa:	f000 fabd 	bl	3728 <_init>
    31ae:	4e08      	ldr	r6, [pc, #32]	; (31d0 <__libc_init_array+0x40>)
    31b0:	4d08      	ldr	r5, [pc, #32]	; (31d4 <__libc_init_array+0x44>)
    31b2:	2400      	movs	r4, #0
    31b4:	1bad      	subs	r5, r5, r6
    31b6:	10ad      	asrs	r5, r5, #2
    31b8:	d005      	beq.n	31c6 <__libc_init_array+0x36>
    31ba:	00a3      	lsls	r3, r4, #2
    31bc:	58f3      	ldr	r3, [r6, r3]
    31be:	3401      	adds	r4, #1
    31c0:	4798      	blx	r3
    31c2:	42a5      	cmp	r5, r4
    31c4:	d1f9      	bne.n	31ba <__libc_init_array+0x2a>
    31c6:	bd70      	pop	{r4, r5, r6, pc}
    31c8:	00003734 	.word	0x00003734
    31cc:	00003734 	.word	0x00003734
    31d0:	00003734 	.word	0x00003734
    31d4:	00003740 	.word	0x00003740

000031d8 <memcpy>:
    31d8:	b5f0      	push	{r4, r5, r6, r7, lr}
    31da:	0005      	movs	r5, r0
    31dc:	2a0f      	cmp	r2, #15
    31de:	d92f      	bls.n	3240 <memcpy+0x68>
    31e0:	000b      	movs	r3, r1
    31e2:	4303      	orrs	r3, r0
    31e4:	079b      	lsls	r3, r3, #30
    31e6:	d134      	bne.n	3252 <memcpy+0x7a>
    31e8:	0016      	movs	r6, r2
    31ea:	000c      	movs	r4, r1
    31ec:	0003      	movs	r3, r0
    31ee:	3e10      	subs	r6, #16
    31f0:	0935      	lsrs	r5, r6, #4
    31f2:	3501      	adds	r5, #1
    31f4:	012d      	lsls	r5, r5, #4
    31f6:	1945      	adds	r5, r0, r5
    31f8:	6827      	ldr	r7, [r4, #0]
    31fa:	601f      	str	r7, [r3, #0]
    31fc:	6867      	ldr	r7, [r4, #4]
    31fe:	605f      	str	r7, [r3, #4]
    3200:	68a7      	ldr	r7, [r4, #8]
    3202:	609f      	str	r7, [r3, #8]
    3204:	68e7      	ldr	r7, [r4, #12]
    3206:	3410      	adds	r4, #16
    3208:	60df      	str	r7, [r3, #12]
    320a:	3310      	adds	r3, #16
    320c:	429d      	cmp	r5, r3
    320e:	d1f3      	bne.n	31f8 <memcpy+0x20>
    3210:	230f      	movs	r3, #15
    3212:	439e      	bics	r6, r3
    3214:	3610      	adds	r6, #16
    3216:	1985      	adds	r5, r0, r6
    3218:	1989      	adds	r1, r1, r6
    321a:	4013      	ands	r3, r2
    321c:	2b03      	cmp	r3, #3
    321e:	d91a      	bls.n	3256 <memcpy+0x7e>
    3220:	1f1e      	subs	r6, r3, #4
    3222:	2300      	movs	r3, #0
    3224:	08b4      	lsrs	r4, r6, #2
    3226:	3401      	adds	r4, #1
    3228:	00a4      	lsls	r4, r4, #2
    322a:	58cf      	ldr	r7, [r1, r3]
    322c:	50ef      	str	r7, [r5, r3]
    322e:	3304      	adds	r3, #4
    3230:	42a3      	cmp	r3, r4
    3232:	d1fa      	bne.n	322a <memcpy+0x52>
    3234:	2403      	movs	r4, #3
    3236:	43a6      	bics	r6, r4
    3238:	1d33      	adds	r3, r6, #4
    323a:	4022      	ands	r2, r4
    323c:	18c9      	adds	r1, r1, r3
    323e:	18ed      	adds	r5, r5, r3
    3240:	2a00      	cmp	r2, #0
    3242:	d005      	beq.n	3250 <memcpy+0x78>
    3244:	2300      	movs	r3, #0
    3246:	5ccc      	ldrb	r4, [r1, r3]
    3248:	54ec      	strb	r4, [r5, r3]
    324a:	3301      	adds	r3, #1
    324c:	4293      	cmp	r3, r2
    324e:	d1fa      	bne.n	3246 <memcpy+0x6e>
    3250:	bdf0      	pop	{r4, r5, r6, r7, pc}
    3252:	0005      	movs	r5, r0
    3254:	e7f6      	b.n	3244 <memcpy+0x6c>
    3256:	001a      	movs	r2, r3
    3258:	e7f2      	b.n	3240 <memcpy+0x68>
    325a:	46c0      	nop			; (mov r8, r8)

0000325c <memset>:
    325c:	b5f0      	push	{r4, r5, r6, r7, lr}
    325e:	0783      	lsls	r3, r0, #30
    3260:	d043      	beq.n	32ea <memset+0x8e>
    3262:	1e54      	subs	r4, r2, #1
    3264:	2a00      	cmp	r2, #0
    3266:	d03f      	beq.n	32e8 <memset+0x8c>
    3268:	b2ce      	uxtb	r6, r1
    326a:	0002      	movs	r2, r0
    326c:	2503      	movs	r5, #3
    326e:	e002      	b.n	3276 <memset+0x1a>
    3270:	001a      	movs	r2, r3
    3272:	3c01      	subs	r4, #1
    3274:	d338      	bcc.n	32e8 <memset+0x8c>
    3276:	1c53      	adds	r3, r2, #1
    3278:	7016      	strb	r6, [r2, #0]
    327a:	422b      	tst	r3, r5
    327c:	d1f8      	bne.n	3270 <memset+0x14>
    327e:	2c03      	cmp	r4, #3
    3280:	d92a      	bls.n	32d8 <memset+0x7c>
    3282:	22ff      	movs	r2, #255	; 0xff
    3284:	400a      	ands	r2, r1
    3286:	0215      	lsls	r5, r2, #8
    3288:	4315      	orrs	r5, r2
    328a:	042a      	lsls	r2, r5, #16
    328c:	4315      	orrs	r5, r2
    328e:	2c0f      	cmp	r4, #15
    3290:	d914      	bls.n	32bc <memset+0x60>
    3292:	0027      	movs	r7, r4
    3294:	001a      	movs	r2, r3
    3296:	3f10      	subs	r7, #16
    3298:	093e      	lsrs	r6, r7, #4
    329a:	3601      	adds	r6, #1
    329c:	0136      	lsls	r6, r6, #4
    329e:	199e      	adds	r6, r3, r6
    32a0:	6015      	str	r5, [r2, #0]
    32a2:	6055      	str	r5, [r2, #4]
    32a4:	6095      	str	r5, [r2, #8]
    32a6:	60d5      	str	r5, [r2, #12]
    32a8:	3210      	adds	r2, #16
    32aa:	4296      	cmp	r6, r2
    32ac:	d1f8      	bne.n	32a0 <memset+0x44>
    32ae:	220f      	movs	r2, #15
    32b0:	4397      	bics	r7, r2
    32b2:	3710      	adds	r7, #16
    32b4:	19db      	adds	r3, r3, r7
    32b6:	4014      	ands	r4, r2
    32b8:	2c03      	cmp	r4, #3
    32ba:	d90d      	bls.n	32d8 <memset+0x7c>
    32bc:	001a      	movs	r2, r3
    32be:	1f27      	subs	r7, r4, #4
    32c0:	08be      	lsrs	r6, r7, #2
    32c2:	3601      	adds	r6, #1
    32c4:	00b6      	lsls	r6, r6, #2
    32c6:	199e      	adds	r6, r3, r6
    32c8:	c220      	stmia	r2!, {r5}
    32ca:	42b2      	cmp	r2, r6
    32cc:	d1fc      	bne.n	32c8 <memset+0x6c>
    32ce:	2203      	movs	r2, #3
    32d0:	4397      	bics	r7, r2
    32d2:	3704      	adds	r7, #4
    32d4:	19db      	adds	r3, r3, r7
    32d6:	4014      	ands	r4, r2
    32d8:	2c00      	cmp	r4, #0
    32da:	d005      	beq.n	32e8 <memset+0x8c>
    32dc:	b2c9      	uxtb	r1, r1
    32de:	191c      	adds	r4, r3, r4
    32e0:	7019      	strb	r1, [r3, #0]
    32e2:	3301      	adds	r3, #1
    32e4:	429c      	cmp	r4, r3
    32e6:	d1fb      	bne.n	32e0 <memset+0x84>
    32e8:	bdf0      	pop	{r4, r5, r6, r7, pc}
    32ea:	0014      	movs	r4, r2
    32ec:	0003      	movs	r3, r0
    32ee:	e7c6      	b.n	327e <memset+0x22>

000032f0 <strlen>:
    32f0:	b510      	push	{r4, lr}
    32f2:	0783      	lsls	r3, r0, #30
    32f4:	d025      	beq.n	3342 <strlen+0x52>
    32f6:	7803      	ldrb	r3, [r0, #0]
    32f8:	2b00      	cmp	r3, #0
    32fa:	d024      	beq.n	3346 <strlen+0x56>
    32fc:	0003      	movs	r3, r0
    32fe:	2103      	movs	r1, #3
    3300:	e002      	b.n	3308 <strlen+0x18>
    3302:	781a      	ldrb	r2, [r3, #0]
    3304:	2a00      	cmp	r2, #0
    3306:	d01a      	beq.n	333e <strlen+0x4e>
    3308:	3301      	adds	r3, #1
    330a:	420b      	tst	r3, r1
    330c:	d1f9      	bne.n	3302 <strlen+0x12>
    330e:	6819      	ldr	r1, [r3, #0]
    3310:	4a0e      	ldr	r2, [pc, #56]	; (334c <strlen+0x5c>)
    3312:	4c0f      	ldr	r4, [pc, #60]	; (3350 <strlen+0x60>)
    3314:	188a      	adds	r2, r1, r2
    3316:	438a      	bics	r2, r1
    3318:	4222      	tst	r2, r4
    331a:	d106      	bne.n	332a <strlen+0x3a>
    331c:	3304      	adds	r3, #4
    331e:	6819      	ldr	r1, [r3, #0]
    3320:	4a0a      	ldr	r2, [pc, #40]	; (334c <strlen+0x5c>)
    3322:	188a      	adds	r2, r1, r2
    3324:	438a      	bics	r2, r1
    3326:	4222      	tst	r2, r4
    3328:	d0f8      	beq.n	331c <strlen+0x2c>
    332a:	001a      	movs	r2, r3
    332c:	781b      	ldrb	r3, [r3, #0]
    332e:	2b00      	cmp	r3, #0
    3330:	d003      	beq.n	333a <strlen+0x4a>
    3332:	3201      	adds	r2, #1
    3334:	7811      	ldrb	r1, [r2, #0]
    3336:	2900      	cmp	r1, #0
    3338:	d1fb      	bne.n	3332 <strlen+0x42>
    333a:	1a10      	subs	r0, r2, r0
    333c:	bd10      	pop	{r4, pc}
    333e:	1a18      	subs	r0, r3, r0
    3340:	e7fc      	b.n	333c <strlen+0x4c>
    3342:	0003      	movs	r3, r0
    3344:	e7e3      	b.n	330e <strlen+0x1e>
    3346:	2000      	movs	r0, #0
    3348:	e7f8      	b.n	333c <strlen+0x4c>
    334a:	46c0      	nop			; (mov r8, r8)
    334c:	fefefeff 	.word	0xfefefeff
    3350:	80808080 	.word	0x80808080

00003354 <__register_exitproc>:
    3354:	b5f0      	push	{r4, r5, r6, r7, lr}
    3356:	464e      	mov	r6, r9
    3358:	4645      	mov	r5, r8
    335a:	46de      	mov	lr, fp
    335c:	4657      	mov	r7, sl
    335e:	b5e0      	push	{r5, r6, r7, lr}
    3360:	4d36      	ldr	r5, [pc, #216]	; (343c <__register_exitproc+0xe8>)
    3362:	b083      	sub	sp, #12
    3364:	0006      	movs	r6, r0
    3366:	6828      	ldr	r0, [r5, #0]
    3368:	4698      	mov	r8, r3
    336a:	000f      	movs	r7, r1
    336c:	4691      	mov	r9, r2
    336e:	f000 f899 	bl	34a4 <__retarget_lock_acquire_recursive>
    3372:	4b33      	ldr	r3, [pc, #204]	; (3440 <__register_exitproc+0xec>)
    3374:	681c      	ldr	r4, [r3, #0]
    3376:	23a4      	movs	r3, #164	; 0xa4
    3378:	005b      	lsls	r3, r3, #1
    337a:	58e0      	ldr	r0, [r4, r3]
    337c:	2800      	cmp	r0, #0
    337e:	d052      	beq.n	3426 <__register_exitproc+0xd2>
    3380:	6843      	ldr	r3, [r0, #4]
    3382:	2b1f      	cmp	r3, #31
    3384:	dc13      	bgt.n	33ae <__register_exitproc+0x5a>
    3386:	1c5a      	adds	r2, r3, #1
    3388:	9201      	str	r2, [sp, #4]
    338a:	2e00      	cmp	r6, #0
    338c:	d128      	bne.n	33e0 <__register_exitproc+0x8c>
    338e:	9a01      	ldr	r2, [sp, #4]
    3390:	3302      	adds	r3, #2
    3392:	009b      	lsls	r3, r3, #2
    3394:	6042      	str	r2, [r0, #4]
    3396:	501f      	str	r7, [r3, r0]
    3398:	6828      	ldr	r0, [r5, #0]
    339a:	f000 f885 	bl	34a8 <__retarget_lock_release_recursive>
    339e:	2000      	movs	r0, #0
    33a0:	b003      	add	sp, #12
    33a2:	bc3c      	pop	{r2, r3, r4, r5}
    33a4:	4690      	mov	r8, r2
    33a6:	4699      	mov	r9, r3
    33a8:	46a2      	mov	sl, r4
    33aa:	46ab      	mov	fp, r5
    33ac:	bdf0      	pop	{r4, r5, r6, r7, pc}
    33ae:	4b25      	ldr	r3, [pc, #148]	; (3444 <__register_exitproc+0xf0>)
    33b0:	2b00      	cmp	r3, #0
    33b2:	d03d      	beq.n	3430 <__register_exitproc+0xdc>
    33b4:	20c8      	movs	r0, #200	; 0xc8
    33b6:	0040      	lsls	r0, r0, #1
    33b8:	e000      	b.n	33bc <__register_exitproc+0x68>
    33ba:	bf00      	nop
    33bc:	2800      	cmp	r0, #0
    33be:	d037      	beq.n	3430 <__register_exitproc+0xdc>
    33c0:	22a4      	movs	r2, #164	; 0xa4
    33c2:	2300      	movs	r3, #0
    33c4:	0052      	lsls	r2, r2, #1
    33c6:	58a1      	ldr	r1, [r4, r2]
    33c8:	6043      	str	r3, [r0, #4]
    33ca:	6001      	str	r1, [r0, #0]
    33cc:	50a0      	str	r0, [r4, r2]
    33ce:	3240      	adds	r2, #64	; 0x40
    33d0:	5083      	str	r3, [r0, r2]
    33d2:	3204      	adds	r2, #4
    33d4:	5083      	str	r3, [r0, r2]
    33d6:	3301      	adds	r3, #1
    33d8:	9301      	str	r3, [sp, #4]
    33da:	2300      	movs	r3, #0
    33dc:	2e00      	cmp	r6, #0
    33de:	d0d6      	beq.n	338e <__register_exitproc+0x3a>
    33e0:	009a      	lsls	r2, r3, #2
    33e2:	4692      	mov	sl, r2
    33e4:	4482      	add	sl, r0
    33e6:	464a      	mov	r2, r9
    33e8:	2188      	movs	r1, #136	; 0x88
    33ea:	4654      	mov	r4, sl
    33ec:	5062      	str	r2, [r4, r1]
    33ee:	22c4      	movs	r2, #196	; 0xc4
    33f0:	0052      	lsls	r2, r2, #1
    33f2:	4691      	mov	r9, r2
    33f4:	4481      	add	r9, r0
    33f6:	464a      	mov	r2, r9
    33f8:	3987      	subs	r1, #135	; 0x87
    33fa:	4099      	lsls	r1, r3
    33fc:	6812      	ldr	r2, [r2, #0]
    33fe:	468b      	mov	fp, r1
    3400:	430a      	orrs	r2, r1
    3402:	4694      	mov	ip, r2
    3404:	464a      	mov	r2, r9
    3406:	4661      	mov	r1, ip
    3408:	6011      	str	r1, [r2, #0]
    340a:	2284      	movs	r2, #132	; 0x84
    340c:	4641      	mov	r1, r8
    340e:	0052      	lsls	r2, r2, #1
    3410:	50a1      	str	r1, [r4, r2]
    3412:	2e02      	cmp	r6, #2
    3414:	d1bb      	bne.n	338e <__register_exitproc+0x3a>
    3416:	0002      	movs	r2, r0
    3418:	465c      	mov	r4, fp
    341a:	328d      	adds	r2, #141	; 0x8d
    341c:	32ff      	adds	r2, #255	; 0xff
    341e:	6811      	ldr	r1, [r2, #0]
    3420:	430c      	orrs	r4, r1
    3422:	6014      	str	r4, [r2, #0]
    3424:	e7b3      	b.n	338e <__register_exitproc+0x3a>
    3426:	0020      	movs	r0, r4
    3428:	304d      	adds	r0, #77	; 0x4d
    342a:	30ff      	adds	r0, #255	; 0xff
    342c:	50e0      	str	r0, [r4, r3]
    342e:	e7a7      	b.n	3380 <__register_exitproc+0x2c>
    3430:	6828      	ldr	r0, [r5, #0]
    3432:	f000 f839 	bl	34a8 <__retarget_lock_release_recursive>
    3436:	2001      	movs	r0, #1
    3438:	4240      	negs	r0, r0
    343a:	e7b1      	b.n	33a0 <__register_exitproc+0x4c>
    343c:	20000460 	.word	0x20000460
    3440:	00003724 	.word	0x00003724
    3444:	00000000 	.word	0x00000000

00003448 <register_fini>:
    3448:	4b03      	ldr	r3, [pc, #12]	; (3458 <register_fini+0x10>)
    344a:	b510      	push	{r4, lr}
    344c:	2b00      	cmp	r3, #0
    344e:	d002      	beq.n	3456 <register_fini+0xe>
    3450:	4802      	ldr	r0, [pc, #8]	; (345c <register_fini+0x14>)
    3452:	f000 f805 	bl	3460 <atexit>
    3456:	bd10      	pop	{r4, pc}
    3458:	00000000 	.word	0x00000000
    345c:	00003471 	.word	0x00003471

00003460 <atexit>:
    3460:	b510      	push	{r4, lr}
    3462:	0001      	movs	r1, r0
    3464:	2300      	movs	r3, #0
    3466:	2200      	movs	r2, #0
    3468:	2000      	movs	r0, #0
    346a:	f7ff ff73 	bl	3354 <__register_exitproc>
    346e:	bd10      	pop	{r4, pc}

00003470 <__libc_fini_array>:
    3470:	b570      	push	{r4, r5, r6, lr}
    3472:	4b09      	ldr	r3, [pc, #36]	; (3498 <__libc_fini_array+0x28>)
    3474:	4c09      	ldr	r4, [pc, #36]	; (349c <__libc_fini_array+0x2c>)
    3476:	1ae4      	subs	r4, r4, r3
    3478:	10a4      	asrs	r4, r4, #2
    347a:	d009      	beq.n	3490 <__libc_fini_array+0x20>
    347c:	4a08      	ldr	r2, [pc, #32]	; (34a0 <__libc_fini_array+0x30>)
    347e:	18a5      	adds	r5, r4, r2
    3480:	00ad      	lsls	r5, r5, #2
    3482:	18ed      	adds	r5, r5, r3
    3484:	682b      	ldr	r3, [r5, #0]
    3486:	3c01      	subs	r4, #1
    3488:	4798      	blx	r3
    348a:	3d04      	subs	r5, #4
    348c:	2c00      	cmp	r4, #0
    348e:	d1f9      	bne.n	3484 <__libc_fini_array+0x14>
    3490:	f000 f956 	bl	3740 <_fini>
    3494:	bd70      	pop	{r4, r5, r6, pc}
    3496:	46c0      	nop			; (mov r8, r8)
    3498:	0000374c 	.word	0x0000374c
    349c:	00003750 	.word	0x00003750
    34a0:	3fffffff 	.word	0x3fffffff

000034a4 <__retarget_lock_acquire_recursive>:
    34a4:	4770      	bx	lr
    34a6:	46c0      	nop			; (mov r8, r8)

000034a8 <__retarget_lock_release_recursive>:
    34a8:	4770      	bx	lr
    34aa:	46c0      	nop			; (mov r8, r8)
    34ac:	646e6553 	.word	0x646e6553
    34b0:	72747320 	.word	0x72747320
    34b4:	73676e69 	.word	0x73676e69
    34b8:	72687420 	.word	0x72687420
    34bc:	6867756f 	.word	0x6867756f
    34c0:	72657420 	.word	0x72657420
    34c4:	616e696d 	.word	0x616e696d
    34c8:	6f74206c 	.word	0x6f74206c
    34cc:	65657320 	.word	0x65657320
    34d0:	73657220 	.word	0x73657220
    34d4:	736e6f70 	.word	0x736e6f70
    34d8:	0a217365 	.word	0x0a217365
    34dc:	00000000 	.word	0x00000000
    34e0:	6c6c6568 	.word	0x6c6c6568
    34e4:	6f77206f 	.word	0x6f77206f
    34e8:	00646c72 	.word	0x00646c72
    34ec:	6c726f57 	.word	0x6c726f57
    34f0:	68203a64 	.word	0x68203a64
    34f4:	6f6c6c65 	.word	0x6f6c6c65
    34f8:	00000a21 	.word	0x00000a21
    34fc:	6f686365 	.word	0x6f686365
    3500:	00000000 	.word	0x00000000
    3504:	65636552 	.word	0x65636552
    3508:	64657669 	.word	0x64657669
    350c:	74616420 	.word	0x74616420
    3510:	69772061 	.word	0x69772061
    3514:	6e206c6c 	.word	0x6e206c6c
    3518:	6220776f 	.word	0x6220776f
    351c:	63652065 	.word	0x63652065
    3520:	64656f68 	.word	0x64656f68
    3524:	00000a21 	.word	0x00000a21
    3528:	67655228 	.word	0x67655228
    352c:	72616c75 	.word	0x72616c75
    3530:	6e756620 	.word	0x6e756620
    3534:	6f697463 	.word	0x6f697463
    3538:	6977206e 	.word	0x6977206e
    353c:	63206c6c 	.word	0x63206c6c
    3540:	65736165 	.word	0x65736165
    3544:	746e7520 	.word	0x746e7520
    3548:	75206c69 	.word	0x75206c69
    354c:	756c706e 	.word	0x756c706e
    3550:	64656767 	.word	0x64656767
    3554:	00000a29 	.word	0x00000a29
    3558:	65746e69 	.word	0x65746e69
    355c:	5f726567 	.word	0x5f726567
    3560:	00000000 	.word	0x00000000
    3564:	65746e49 	.word	0x65746e49
    3568:	3a726567 	.word	0x3a726567
    356c:	00000020 	.word	0x00000020
    3570:	61757173 	.word	0x61757173
    3574:	005f6572 	.word	0x005f6572
    3578:	61757153 	.word	0x61757153
    357c:	76206572 	.word	0x76206572
    3580:	65756c61 	.word	0x65756c61
    3584:	0000203a 	.word	0x0000203a
    3588:	00006e6f 	.word	0x00006e6f
    358c:	63206e4f 	.word	0x63206e4f
    3590:	616d6d6f 	.word	0x616d6d6f
    3594:	7220646e 	.word	0x7220646e
    3598:	69656365 	.word	0x69656365
    359c:	21646576 	.word	0x21646576
    35a0:	72755420 	.word	0x72755420
    35a4:	676e696e 	.word	0x676e696e
    35a8:	2e6e6f20 	.word	0x2e6e6f20
    35ac:	000a2e2e 	.word	0x000a2e2e
    35b0:	0066666f 	.word	0x0066666f
    35b4:	2066664f 	.word	0x2066664f
    35b8:	6d6d6f63 	.word	0x6d6d6f63
    35bc:	20646e61 	.word	0x20646e61
    35c0:	65636572 	.word	0x65636572
    35c4:	64657669 	.word	0x64657669
    35c8:	75542021 	.word	0x75542021
    35cc:	6e696e72 	.word	0x6e696e72
    35d0:	666f2067 	.word	0x666f2067
    35d4:	2e2e2e66 	.word	0x2e2e2e66
    35d8:	0000000a 	.word	0x0000000a
    35dc:	20425355 	.word	0x20425355
    35e0:	67756c70 	.word	0x67756c70
    35e4:	20646567 	.word	0x20646567
    35e8:	0a216e69 	.word	0x0a216e69
    35ec:	00000000 	.word	0x00000000
    35f0:	0000147e 	.word	0x0000147e
    35f4:	000013e2 	.word	0x000013e2
    35f8:	00001418 	.word	0x00001418
    35fc:	00001446 	.word	0x00001446
    3600:	0000147e 	.word	0x0000147e
    3604:	0000147e 	.word	0x0000147e
    3608:	00001464 	.word	0x00001464
    360c:	00001418 	.word	0x00001418
    3610:	0000147e 	.word	0x0000147e
    3614:	0000147e 	.word	0x0000147e
    3618:	0000147e 	.word	0x0000147e
    361c:	0000147e 	.word	0x0000147e
    3620:	0000147e 	.word	0x0000147e
    3624:	0000147e 	.word	0x0000147e
    3628:	0000147e 	.word	0x0000147e
    362c:	000013f4 	.word	0x000013f4
    3630:	00001b80 	.word	0x00001b80
    3634:	00001b5a 	.word	0x00001b5a
    3638:	00001d82 	.word	0x00001d82
    363c:	00001b34 	.word	0x00001b34
    3640:	00001d82 	.word	0x00001d82
    3644:	00001aa6 	.word	0x00001aa6
    3648:	00001b2a 	.word	0x00001b2a
    364c:	00001d82 	.word	0x00001d82
    3650:	00001ac2 	.word	0x00001ac2
    3654:	00001ada 	.word	0x00001ada
    3658:	00001dbe 	.word	0x00001dbe
    365c:	00001db0 	.word	0x00001db0
    3660:	00001dee 	.word	0x00001dee
    3664:	00001dbe 	.word	0x00001dbe
    3668:	00001ed0 	.word	0x00001ed0
    366c:	00001ef0 	.word	0x00001ef0
    3670:	00001e00 	.word	0x00001e00
    3674:	00001e4a 	.word	0x00001e4a
    3678:	00001f06 	.word	0x00001f06

0000367c <_usbd_driver>:
    367c:	000007b9 00000839 00000889 00000969     ....9.......i...
    368c:	00000a99 00000000                       ........

00003694 <desc_device>:
    3694:	02000112 400102ef 4001cafe 02010100     .......@...@....
    36a4:	00000103                                ....

000036a8 <desc_fs_configuration>:
    36a8:	004b0209 80000102 000b0832 00020202     ..K.....2.......
    36b8:	00040900 02020100 24050400 05012000     ...........$. ..
    36c8:	01000124 02022404 00062405 81050701     $....$...$......
    36d8:	10000803 00010409 00000a02 02050700     ................
    36e8:	00004002 02820507 00000040              .@......@...

000036f4 <__compound_literal.0>:
    36f4:	00000409 796e6954 00425355 796e6954     ....TinyUSB.Tiny
    3704:	20425355 69766544 00006563 34333231     USB Device..1234
    3714:	00003635 796e6954 20425355 00434443     56..TinyUSB CDC.

00003724 <_global_impure_ptr>:
    3724:	20000038                                8.. 

00003728 <_init>:
    3728:	b5f8      	push	{r3, r4, r5, r6, r7, lr}
    372a:	46c0      	nop			; (mov r8, r8)
    372c:	bcf8      	pop	{r3, r4, r5, r6, r7}
    372e:	bc08      	pop	{r3}
    3730:	469e      	mov	lr, r3
    3732:	4770      	bx	lr

00003734 <__init_array_start>:
    3734:	00003449 	.word	0x00003449

00003738 <__frame_dummy_init_array_entry>:
    3738:	000000dd 000005ad                       ........

00003740 <_fini>:
    3740:	b5f8      	push	{r3, r4, r5, r6, r7, lr}
    3742:	46c0      	nop			; (mov r8, r8)
    3744:	bcf8      	pop	{r3, r4, r5, r6, r7}
    3746:	bc08      	pop	{r3}
    3748:	469e      	mov	lr, r3
    374a:	4770      	bx	lr

0000374c <__fini_array_start>:
    374c:	000000b5 	.word	0x000000b5
